******************************************************************************
                  TI ARM Linker PC v18.12.2                    
******************************************************************************
>> Linked Wed Aug 28 14:27:49 2019

OUTPUT FILE NAME:   <Plantsensor.out>
ENTRY POINT SYMBOL: "ResetISR"  address: 00007a89


MEMORY CONFIGURATION

         name            origin    length      used     unused   attr    fill
----------------------  --------  ---------  --------  --------  ----  --------
  FLASH                 00000000   00020000  0000c346  00013cba  R  X
  SRAM                  20000000   00005000  00002e62  0000219e  RW X


SEGMENT ALLOCATION MAP

run origin  load origin   length   init length attrs members
----------  ----------- ---------- ----------- ----- -------
00000000    00000000    00000468   00000468    r--
  00000000    00000000    0000003c   0000003c    r-- .resetVecs
  00000040    00000040    00000428   00000428    r-- .cinit
00001000    00001000    0000be96   0000be96    r-x
  00001000    00001000    0000003c   0000003c    r-- .const:ti_sysbios_knl_Task_Object__PARAMS__C
  0000103c    0000103c    00000034   00000034    r-- .const:ti_sysbios_knl_Mailbox_Object__PARAMS__C
  00001070    00001070    00000030   00000030    r-- .const:ti_sysbios_family_arm_m3_Hwi_Object__PARAMS__C
  000010a0    000010a0    0000002c   0000002c    r-- .const:ti_sysbios_hal_Hwi_Object__PARAMS__C
  000010cc    000010cc    00000028   00000028    r-- .const:ti_sysbios_heaps_HeapMem_Module__FXNS__C
  000010f4    000010f4    00000028   00000028    r-- .const:ti_sysbios_knl_Swi_Object__PARAMS__C
  0000111c    0000111c    00000024   00000024    r-- .const:ti_sysbios_gates_GateHwi_Module__FXNS__C
  00001140    00001140    00000024   00000024    r-- .const:ti_sysbios_gates_GateMutex_Module__FXNS__C
  00001164    00001164    00000024   00000024    r-- .const:ti_sysbios_heaps_HeapMem_Object__PARAMS__C
  00001188    00001188    00000024   00000024    r-- .const:ti_sysbios_knl_Clock_Object__PARAMS__C
  000011ac    000011ac    00000024   00000024    r-- .const:ti_sysbios_knl_Semaphore_Object__PARAMS__C
  000011d0    000011d0    00000020   00000020    r-- .const:ti_sysbios_family_arm_m3_Hwi_Object__DESC__C
  000011f0    000011f0    00000020   00000020    r-- .const:ti_sysbios_gates_GateHwi_Object__DESC__C
  00001210    00001210    00000020   00000020    r-- .const:ti_sysbios_gates_GateMutex_Object__DESC__C
  00001230    00001230    00000020   00000020    r-- .const:ti_sysbios_hal_Hwi_Object__DESC__C
  00001250    00001250    00000020   00000020    r-- .const:ti_sysbios_heaps_HeapMem_Object__DESC__C
  00001270    00001270    00000020   00000020    r-- .const:ti_sysbios_knl_Clock_Object__DESC__C
  00001290    00001290    00000020   00000020    r-- .const:ti_sysbios_knl_Mailbox_Object__DESC__C
  000012b0    000012b0    00000020   00000020    r-- .const:ti_sysbios_knl_Queue_Object__DESC__C
  000012d0    000012d0    00000020   00000020    r-- .const:ti_sysbios_knl_Semaphore_Object__DESC__C
  000012f0    000012f0    00000020   00000020    r-- .const:ti_sysbios_knl_Swi_Object__DESC__C
  00001310    00001310    00000020   00000020    r-- .const:ti_sysbios_knl_Task_Object__DESC__C
  00001330    00001330    00000018   00000018    r-- .const:ti_sysbios_gates_GateHwi_Object__PARAMS__C
  00001348    00001348    00000018   00000018    r-- .const:ti_sysbios_gates_GateMutex_Object__PARAMS__C
  00001360    00001360    00000018   00000018    r-- .const:ti_sysbios_knl_Queue_Object__PARAMS__C
  00001378    00001378    00000008   00000008    r-- .const:ti_sysbios_knl_Idle_funcList__C
  00001384    00001384    00000004   00000004    r-- .const:ti_sysbios_family_arm_cc26xx_Timer_startupNeeded__C
  00001388    00001388    00000004   00000004    r-- .const:ti_sysbios_family_arm_m3_Hwi_E_alreadyDefined__C
  0000138c    0000138c    00000004   00000004    r-- .const:ti_sysbios_family_arm_m3_Hwi_E_hwiLimitExceeded__C
  00001390    00001390    00000004   00000004    r-- .const:ti_sysbios_family_arm_m3_Hwi_NUM_INTERRUPTS__C
  00001394    00001394    00000004   00000004    r-- .const:ti_sysbios_family_arm_m3_Hwi_Object__count__C
  00001398    00001398    00000004   00000004    r-- .const:ti_sysbios_family_arm_m3_Hwi_Object__table__C
  0000139c    0000139c    00000004   00000004    r-- .const:ti_sysbios_family_arm_m3_Hwi_ccr__C
  000013a0    000013a0    00000004   00000004    r-- .const:ti_sysbios_family_arm_m3_Hwi_excHandlerFunc__C
  000013a4    000013a4    00000004   00000004    r-- .const:ti_sysbios_family_arm_m3_Hwi_nullIsrFunc__C
  000013a8    000013a8    00000004   00000004    r-- .const:ti_sysbios_family_arm_m3_Hwi_numSparseInterrupts__C
  000013ac    000013ac    00000004   00000004    r-- .const:ti_sysbios_family_arm_m3_Hwi_priGroup__C
  000013b0    000013b0    00000004   00000004    r-- .const:ti_sysbios_family_arm_m3_TaskSupport_stackAlignment__C
  000013b4    000013b4    00000004   00000004    r-- .const:ti_sysbios_heaps_HeapMem_E_memory__C
  000013b8    000013b8    00000004   00000004    r-- .const:ti_sysbios_heaps_HeapMem_Module__gateObj__C
  000013bc    000013bc    00000004   00000004    r-- .const:ti_sysbios_heaps_HeapMem_Object__count__C
  000013c0    000013c0    00000004   00000004    r-- .const:ti_sysbios_heaps_HeapMem_Object__table__C
  000013c4    000013c4    00000004   00000004    r-- .const:ti_sysbios_heaps_HeapMem_reqAlign__C
  000013c8    000013c8    00000004   00000004    r-- .const:ti_sysbios_knl_Clock_serviceMargin__C
  000013cc    000013cc    00000004   00000004    r-- .const:ti_sysbios_knl_Mailbox_Object__count__C
  000013d0    000013d0    00000004   00000004    r-- .const:ti_sysbios_knl_Mailbox_Object__table__C
  000013d4    000013d4    00000004   00000004    r-- .const:ti_sysbios_knl_Mailbox_maxTypeAlign__C
  000013d8    000013d8    00000004   00000004    r-- .const:ti_sysbios_knl_Queue_Object__count__C
  000013dc    000013dc    00000004   00000004    r-- .const:ti_sysbios_knl_Queue_Object__table__C
  000013e0    000013e0    00000004   00000004    r-- .const:ti_sysbios_knl_Swi_Object__count__C
  000013e4    000013e4    00000004   00000004    r-- .const:ti_sysbios_knl_Swi_Object__table__C
  000013e8    000013e8    00000004   00000004    r-- .const:ti_sysbios_knl_Swi_numPriorities__C
  000013ec    000013ec    00000004   00000004    r-- .const:ti_sysbios_knl_Task_Object__count__C
  000013f0    000013f0    00000004   00000004    r-- .const:ti_sysbios_knl_Task_Object__table__C
  000013f4    000013f4    00000004   00000004    r-- .const:ti_sysbios_knl_Task_allBlockedFunc__C
  000013f8    000013f8    00000004   00000004    r-- .const:ti_sysbios_knl_Task_defaultStackHeap__C
  000013fc    000013fc    00000004   00000004    r-- .const:ti_sysbios_knl_Task_defaultStackSize__C
  00001400    00001400    00000004   00000004    r-- .const:ti_sysbios_knl_Task_numConstructedTasks__C
  00001406    00001406    00000002   00000002    r-- .const:ti_sysbios_family_arm_cc26xx_Timer_Module__id__C
  00001408    00001408    00000002   00000002    r-- .const:ti_sysbios_family_arm_cc26xx_TimestampProvider_useClockTimer__C
  0000140a    0000140a    00000002   00000002    r-- .const:ti_sysbios_family_arm_m3_Hwi_Module__id__C
  0000140c    0000140c    00000002   00000002    r-- .const:ti_sysbios_gates_GateHwi_Module__id__C
  0000140e    0000140e    00000002   00000002    r-- .const:ti_sysbios_gates_GateMutex_Module__id__C
  00001410    00001410    00000002   00000002    r-- .const:ti_sysbios_heaps_HeapMem_Module__id__C
  00001412    00001412    00000002   00000002    r-- .const:ti_sysbios_knl_Task_initStackFlag__C
  00001414    00001414    00000001   00000001    r-- .const:ti_sysbios_knl_Clock_tickMode__C
  00001418    00001418    00000008   00000008    r-- .const:xdc_runtime_Startup_firstFxns__C
  00001420    00001420    00000008   00000008    r-- .const:xdc_runtime_Startup_lastFxns__C
  00001428    00001428    00000004   00000004    r-- .const:xdc_runtime_Assert_E_assertFailed__C
  0000142c    0000142c    00000004   00000004    r-- .const:xdc_runtime_Error_E_memory__C
  00001430    00001430    00000004   00000004    r-- .const:xdc_runtime_Error_policyFxn__C
  00001434    00001434    00000004   00000004    r-- .const:xdc_runtime_IGateProvider_Interface__BASE__C
  00001438    00001438    00000004   00000004    r-- .const:xdc_runtime_IHeap_Interface__BASE__C
  0000143c    0000143c    00000004   00000004    r-- .const:xdc_runtime_IModule_Interface__BASE__C
  00001440    00001440    00000004   00000004    r-- .const:xdc_runtime_Main_Module__diagsEnabled__C
  00001444    00001444    00000004   00000004    r-- .const:xdc_runtime_Main_Module__diagsIncluded__C
  00001448    00001448    00000004   00000004    r-- .const:xdc_runtime_Main_Module__diagsMask__C
  0000144c    0000144c    00000004   00000004    r-- .const:xdc_runtime_Memory_defaultHeapInstance__C
  00001450    00001450    00000004   00000004    r-- .const:xdc_runtime_Startup_execImpl__C
  00001454    00001454    00000004   00000004    r-- .const:xdc_runtime_Startup_maxPasses__C
  00001458    00001458    00000004   00000004    r-- .const:xdc_runtime_Startup_sfxnRts__C
  0000145c    0000145c    00000004   00000004    r-- .const:xdc_runtime_Startup_sfxnTab__C
  00001460    00001460    00000004   00000004    r-- .const:xdc_runtime_Startup_startModsFxn__C
  00001464    00001464    00000004   00000004    r-- .const:xdc_runtime_SysCallback_abortFxn__C
  00001468    00001468    00000004   00000004    r-- .const:xdc_runtime_SysCallback_exitFxn__C
  0000146c    0000146c    00000004   00000004    r-- .const:xdc_runtime_System_abortFxn__C
  00001470    00001470    00000004   00000004    r-- .const:xdc_runtime_System_exitFxn__C
  00001474    00001474    00000004   00000004    r-- .const:xdc_runtime_System_maxAtexitHandlers__C
  00001478    00001478    00000004   00000004    r-- .const:xdc_runtime_Text_charTab__C
  0000147c    0000147c    00000004   00000004    r-- .const:xdc_runtime_Text_nameEmpty__C
  00001480    00001480    00000004   00000004    r-- .const:xdc_runtime_Text_nameStatic__C
  00001484    00001484    00000004   00000004    r-- .const:xdc_runtime_Text_nameUnknown__C
  00001488    00001488    00000002   00000002    r-- .const:xdc_runtime_Main_Module__id__C
  0000148a    0000148a    00000002   00000002    r-- .const:xdc_runtime_Memory_Module__id__C
  0000148c    0000148c    00000002   00000002    r-- .const:xdc_runtime_Text_charCnt__C
  0000148e    0000148e    00000002   00000002    r-- .const:xdc_runtime_Text_isLoaded__C
  00001490    00001490    00000001   00000001    r-- .const:xdc_runtime_Error_policy__C
  00001494    00001494    00000004   00000004    r-- .const:ti_sysbios_rom_ROM_AONRTCChannelEnable
  00001498    00001498    00000004   00000004    r-- .const:ti_sysbios_rom_ROM_AONRTCCompareValueSet
  0000149c    0000149c    00000004   00000004    r-- .const:ti_sysbios_rom_ROM_AONRTCCurrentCompareValueGet
  000014a0    000014a0    00000004   00000004    r-- .const:ti_sysbios_rom_ROM_AONRTCEventClear
  000014a4    000014a4    00000004   00000004    r-- .const:ti_sysbios_rom_ROM_ti_sysbios_family_arm_cc26xx_Timer_getCount64__E
  000014a8    000014a8    00000004   00000004    r-- .const:ti_sysbios_rom_ROM_ti_sysbios_family_arm_cc26xx_Timer_getCurrentTick__E
  000014ac    000014ac    00000004   00000004    r-- .const:ti_sysbios_rom_ROM_ti_sysbios_family_arm_cc26xx_Timer_getMaxTicks__E
  000014b0    000014b0    00000004   00000004    r-- .const:ti_sysbios_rom_ROM_ti_sysbios_family_arm_cc26xx_Timer_initDevice__I
  000014b4    000014b4    00000004   00000004    r-- .const:ti_sysbios_rom_ROM_ti_sysbios_family_arm_cc26xx_Timer_setNextTick__E
  000014b8    000014b8    00000004   00000004    r-- .const:ti_sysbios_rom_ROM_ti_sysbios_family_arm_cc26xx_Timer_setThreshold__I
  000014bc    000014bc    00000004   00000004    r-- .const:ti_sysbios_rom_ROM_ti_sysbios_family_arm_cc26xx_Timer_start__E
  000014c0    000014c0    00000004   00000004    r-- .const:ti_sysbios_rom_ROM_ti_sysbios_family_arm_cc26xx_TimestampProvider_get32__E
  000014c4    000014c4    00000004   00000004    r-- .const:ti_sysbios_rom_ROM_xdc_runtime_Startup_getState__I
  000014c8    000014c8    00000004   00000004    r-- .const:ti_sysbios_rom_ROM_xdc_runtime_System_SupportProxy_abort__E
  000014cc    000014cc    00000004   00000004    r-- .const:ti_sysbios_rom_ROM_xdc_runtime_System_SupportProxy_exit__E
  000014d0    000014d0    00000004   00000004    r-- .const:ti_sysbios_gates_GateMutex_Instance_State_sem__O
  000014d4    000014d4    00000004   00000004    r-- .const:ti_sysbios_knl_Clock_Module_State_clockQ__O
  000014d8    000014d8    00000004   00000004    r-- .const:ti_sysbios_knl_Mailbox_Instance_State_dataQue__O
  000014dc    000014dc    00000004   00000004    r-- .const:ti_sysbios_knl_Mailbox_Instance_State_dataSem__O
  000014e0    000014e0    00000004   00000004    r-- .const:ti_sysbios_knl_Mailbox_Instance_State_freeQue__O
  000014e4    000014e4    00000004   00000004    r-- .const:ti_sysbios_knl_Mailbox_Instance_State_freeSem__O
  000014e8    000014e8    00000004   00000004    r-- .const:ti_sysbios_knl_Semaphore_Instance_State_pendQ__O
  000014ec    000014ec    00000004   00000004    r-- .const:ti_sysbios_knl_Task_Module_State_inactiveQ__O
  000014f0    000014f0    00007fd4   00007fd4    r-x .text
  000094c4    000094c4    000039d2   000039d2    r-- .const
0001ffa8    0001ffa8    00000058   00000058    r--
  0001ffa8    0001ffa8    00000058   00000058    r-- .ccfg
20000100    20000100    00002aa3   00000000    rw-
  20000100    20000100    00000044   00000000    rw- .data:ti_sysbios_knl_Task_Module__state__V
  20000144    20000144    00000034   00000000    rw- .data:ti_sysbios_family_arm_m3_Hwi_Module__state__V
  20000178    20000178    0000002c   00000000    rw- .data:ti_sysbios_knl_Clock_Module__state__V
  200001a4    200001a4    00000024   00000000    rw- .data:ti_sysbios_BIOS_Module__state__V
  200001c8    200001c8    0000001c   00000000    rw- .data:ti_sysbios_knl_Swi_Module__state__V
  200001e4    200001e4    00000008   00000000    rw- .data:ti_sysbios_family_arm_cc26xx_Timer_Module__state__V
  200001ec    200001ec    00000004   00000000    rw- .data:ti_sysbios_family_arm_cc26xx_TimestampProvider_Module__state__V
  200001f0    200001f0    00000008   00000000    rw- .data:xdc_runtime_Startup_Module__state__V
  200001f8    200001f8    00000008   00000000    rw- .data:xdc_runtime_System_Module__state__V
  20000200    20000200    00000004   00000000    rw- .data:xdc_runtime_Memory_Module__state__V
  20000208    20000208    000020bb   00000000    rw- .bss
  200022c8    200022c8    000008db   00000000    rw- .data
20004d00    20004d00    00000300   00000000    rw-
  20004d00    20004d00    00000300   00000000    rw- .stack


SECTION ALLOCATION MAP

 output                                  attributes/
section   page    origin      length       input sections
--------  ----  ----------  ----------   ----------------
.text      0    000014f0    00007fd4     
                  000014f0    000003b8     rf_singleMode_cc13xxware.aem3 : RFCC26XX_singleMode.oem3 (.text:fsmActiveState)
                  000018a8    00000348     EasyLink.obj (.text:EasyLink_init)
                  00001bf0    0000033c     rom_sysbios.aem3 : rom_sysbios.obj (.text:xdc_runtime_System_doPrint__I)
                  00001f2c    00000228     driverlib.lib : sys_ctrl.obj (.text:NOROM_SysCtrlSetRechargeBeforePowerDown)
                  00002154    00000228     drivers_cc13xxware.aem3 : PowerCC26XX.oem3 (.text:Power_sleep)
                  0000237c    000001ec                             : PowerCC26XX_calibrateRCOSC.oem3 (.text:calibrateRcoscHf1)
                  00002568    000001dc     rf_singleMode_cc13xxware.aem3 : RFCC26XX_singleMode.oem3 (.text:RF_postCmd)
                  00002744    000001d4     NodeRadioTask.obj (.text:nodeRadioTaskFunction)
                  00002918    000001c4     drivers_cc13xxware.aem3 : PINCC26XX.oem3 (.text:PIN_init)
                  00002adc    000001a0                             : PowerCC26XX_calibrateRCOSC.oem3 (.text:PowerCC26XX_doCalibrate)
                  00002c7c    00000188     EasyLink.obj (.text:rxDoneCallback)
                  00002e04    00000170     EasyLink.obj (.text:EasyLink_receiveAsync)
                  00002f74    00000168     rf_singleMode_cc13xxware.aem3 : RFCC26XX_singleMode.oem3 (.text:fsmSetupState)
                  000030dc    00000168     NodeTask.obj (.text:nodeTaskFunction)
                  00003244    00000160     EasyLink.obj (.text:enableTestMode)
                  000033a4    00000150     smartrf_settings_predefined.obj (.text:rf_patch_mce_genook)
                  000034f4    00000140     Sensor.obj (.text:InitSensors)
                  00003634    0000013c     EasyLink.obj (.text:EasyLink_transmit)
                  00003770    00000136     rtsv7M3_T_le_eabi.lib : fd_div_t2.asm.obj (.text)
                  000038a6    00000002                           : _lock.c.obj (.text:_nop)
                  000038a8    00000130     driverlib.lib : setup_rom.obj (.text:NOROM_SetupAfterColdResetWakeupFromShutDownCfg3)
                  000039d8    0000012c     drivers_cc13xxware.aem3 : PowerCC26XX.oem3 (.text:Power_init)
                  00003b04    00000128     rf_singleMode_cc13xxware.aem3 : RFCC26XX_singleMode.oem3 (.text:rf_init)
                  00003c2c    00000128     smartrf_settings.obj (.text:rf_patch_rfe_genfsk)
                  00003d54    00000128     smartrf_settings_predefined.obj (.text:rf_patch_rfe_genfsk)
                  00003e7c    00000128     smartrf_settings_predefined.obj (.text:rf_patch_rfe_lrm)
                  00003fa4    00000118     rf_singleMode_cc13xxware.aem3 : RFCC26XX_singleMode.oem3 (.text:hwiFxnCpe0Active)
                  000040bc    00000114     smartrf_settings_predefined.obj (.text:rf_patch_mce_hsp_4mbps)
                  000041d0    00000114     Sensor.obj (.text:timerCallback)
                  000042e4    00000108     rf_singleMode_cc13xxware.aem3 : RFCC26XX_singleMode.oem3 (.text:RF_close)
                  000043ec    00000100     scif_framework.obj (.text:scifInit)
                  000044ec    000000f8     drivers_cc13xxware.aem3 : I2CCC26XX.oem3 (.text:I2CCC26XX_open)
                  000045e4    000000f8     main_pem3.oem3 (.text:xdc_runtime_System_printfExtend__I)
                  000046dc    000000f0     driverlib.lib : setup_rom.obj (.text:NOROM_SetupAfterColdResetWakeupFromShutDownCfg2)
                  000047cc    000000e8     drivers_cc13xxware.aem3 : I2CCC26XX.oem3 (.text:I2CCC26XX_hwiFxn)
                  000048b4    000000e8     rom_sysbios.aem3 : rom_sysbios.obj (.text:ti_sysbios_knl_Event_pend__E)
                  0000499c    000000e0     drivers_cc13xxware.aem3 : PINCC26XX.oem3 (.text:PINCC26XX_setIoCfg)
                  00004a7c    000000e0     scif_framework.obj (.text:scifCtrlTasksNbl)
                  00004b5c    000000d8     EasyLink.obj (.text:EasyLink_enableRxAddrFilter)
                  00004c34    000000d8     driverlib.lib : rfc.obj (.text:NOROM_RFCRTrim)
                  00004d0c    000000d8     smartrf_settings_predefined.obj (.text:rf_patch_rfe_genook)
                  00004de4    000000d8     smartrf_settings_predefined.obj (.text:rf_patch_rfe_hsp_4mbps)
                  00004ebc    000000d4     driverlib.lib : rfc.obj (.text:NOROM_RFCRfTrimRead)
                  00004f90    000000d4     power_cc13xx_tirtos.aem3 : PowerCC26XX_tirtos.oem3 (.text:PowerCC26XX_standbyPolicy)
                  00005064    000000d4     drivers_cc13xxware.aem3 : PowerCC26XX.oem3 (.text:Power_releaseDependency)
                  00005138    000000d4     Sensor.obj (.text:fetchSensorData)
                  0000520c    000000d0     drivers_cc13xxware.aem3 : PowerCC26XX.oem3 (.text:Power_setDependency)
                  000052dc    000000cc     rf_singleMode_cc13xxware.aem3 : RFCC26XX_singleMode.oem3 (.text:RF_open)
                  000053a8    000000c6     Sensor.obj (.text:Array_sort)
                  0000546e    00000002     SceAdc.obj (.text:ctrlReadyCallback)
                  00005470    000000c4     rf_singleMode_cc13xxware.aem3 : RFCC26XX_singleMode.oem3 (.text:fsmPowerUpState)
                  00005534    000000c2     drivers_cc13xxware.aem3 : I2CCC26XX.oem3 (.text:I2CCC26XX_transfer)
                  000055f6    00000002     rf_singleMode_cc13xxware.aem3 : RFCC26XX_singleMode.oem3 (.text:defaultErrCb)
                  000055f8    000000c0     EasyLink.obj (.text:EasyLink_setCtrl)
                  000056b8    000000c0     driverlib.lib : setup.obj (.text:TrimAfterColdResetWakeupFromShutDown)
                  00005778    000000c0     NodeRadioTask.obj (.text:sendDmPacket)
                  00005838    000000ac     NodeRadioTask.obj (.text:NodeRadioTask_init)
                  000058e4    000000a8     driverlib.lib : setup.obj (.text:NOROM_SetupTrimDevice)
                  0000598c    000000a4                   : setup_rom.obj (.text:NOROM_SetupAfterColdResetWakeupFromShutDownCfg1)
                  00005a30    000000a0     auto_init.aem3 : auto_init.oem3 (.text)
                  00005ad0    0000009e     rom_sysbios.aem3 : rom_sysbios.obj (.text:xdc_runtime_Text_putSite__E)
                  00005b6e    00000002     drivers_cc13xxware.aem3 : PowerCC26XX.oem3 (.text:emptyClockFunc)
                  00005b70    0000009c     Sensor.obj (.text:HDC_readData)
                  00005c0c    0000009c     rtsv7M3_T_le_eabi.lib : memcpy_t2.asm.obj (.text)
                  00005ca8    00000098     NodeTask.obj (.text:NodeTask_init)
                  00005d40    00000098     rom_sysbios.aem3 : rom_sysbios.obj (.text:ti_sysbios_knl_Clock_workFuncDynamic__E)
                  00005dd8    00000096     rtsv7M3_T_le_eabi.lib : ull_div_t2.asm.obj (.text)
                  00005e6e    00000002     smartrf_settings.obj (.text:enterGenfskSysPatch)
                  00005e70    00000094     drivers_cc13xxware.aem3 : PINCC26XX.oem3 (.text:PIN_open)
                  00005f04    00000094     rom_sysbios.aem3 : rom_sysbios.obj (.text:xdc_runtime_Text_putMod__E)
                  00005f98    00000090     drivers_cc13xxware.aem3 : I2CCC26XX.oem3 (.text:I2CCC26XX_cancel)
                  00006028    00000090                             : PowerCC26XX.oem3 (.text:switchXOSCHFclockFunc)
                  000060b8    0000008c                             : GPTimerCC26XX.oem3 (.text:GPTimerCC26XX_open)
                  00006144    0000008c                             : I2CCC26XX.oem3 (.text:I2CCC26XX_primeTransfer)
                  000061d0    0000008c                             : PowerCC26XX.oem3 (.text:disableLFClockQualifiers)
                  0000625c    0000008c     scif_framework.obj (.text:scifInitIo)
                  000062e8    00000088     drivers_cc13xxware.aem3 : PowerCC26XX_calibrateRCOSC.oem3 (.text:calibrateRcoscHf2)
                  00006370    00000084     rf_singleMode_cc13xxware.aem3 : RFCC26XX_singleMode.oem3 (.text:swiFxnHw)
                  000063f4    00000080                                   : RFCC26XX_singleMode.oem3 (.text:RF_pendCmd)
                  00006474    0000007a     rtsv7M3_T_le_eabi.lib : memset_t2.asm.obj (.text)
                  000064ee    00000002     smartrf_settings_predefined.obj (.text:enterGenfskSysPatch)
                  000064f0    00000074     driverlib.lib : setup_rom.obj (.text:NOROM_SetupSetVddrLevel)
                  00006564    00000074     drivers_cc13xxware.aem3 : PowerCC26XX_calibrateRCOSC.oem3 (.text:PowerCC26XX_auxISR)
                  000065d8    00000074     rf_singleMode_cc13xxware.aem3 : RFCC26XX_singleMode.oem3 (.text:decActiveClientCnt)
                  0000664c    00000074                                   : RFCC26XX_singleMode.oem3 (.text:fsmPowerDownState)
                  000066c0    00000074     NodeRadioTask.obj (.text:resendPacket)
                  00006734    00000074     rom_sysbios.aem3 : rom_sysbios.obj (.text:ti_sysbios_family_arm_cc26xx_Timer_start__E)
                  000067a8    00000070     driverlib.lib : chipinfo.obj (.text:NOROM_ChipInfo_GetHwRevision)
                  00006818    00000070     scif_framework.obj (.text:scifGetTaskStruct)
                  00006888    00000070     rom_sysbios.aem3 : rom_sysbios.obj (.text:ti_sysbios_knl_Event_post__E)
                  000068f8    0000006d                      : rom_sysbios.obj (.text:xdc_runtime_System_formatNum__I)
                  00006965    00000001     --HOLE-- [fill = 0]
                  00006966    00000002     smartrf_settings_predefined.obj (.text:enterGenookSysPatch)
                  00006968    0000006c     Sensor.obj (.text:BMP_readData)
                  000069d4    0000006c     driverlib.lib : setup_rom.obj (.text:NOROM_SetupGetTrimForAmpcompCtrl)
                  00006a40    0000006c     drivers_cc13xxware.aem3 : PowerCC26XX.oem3 (.text:PowerCC26XX_calibrate)
                  00006aac    00000068     Sensor.obj (.text:Find_median)
                  00006b14    00000068     driverlib.lib : setup_rom.obj (.text:NOROM_SetupGetTrimForAnabypassValue1)
                  00006b7c    00000068                   : sys_ctrl.obj (.text:NOROM_SysCtrl_DCDC_VoltageConditionalControl)
                  00006be4    00000068     rf_singleMode_cc13xxware.aem3 : RFCC26XX_singleMode.oem3 (.text:RF_getCurrentTime)
                  00006c4c    00000068     rtsv7M3_T_le_eabi.lib : copy_decompress_lzss.c.obj (.text:decompress:lzss:__TI_decompress_lzss)
                  00006cb4    00000064     drivers_cc13xxware.aem3 : I2CCC26XX.oem3 (.text:I2CCC26XX_close)
                  00006d18    00000064                             : I2CCC26XX.oem3 (.text:I2CCC26XX_initIO)
                  00006d7c    00000064     driverlib.lib : osc.obj (.text:NOROM_OSCHF_AttemptToSwitchToXosc)
                  00006de0    00000060     drivers_cc13xxware.aem3 : GPTimerCC26XX.oem3 (.text:GPTimerCC26XX_registerInterrupt)
                  00006e40    00000060     driverlib.lib : osc.obj (.text:NOROM_OSCClockSourceSet)
                  00006ea0    00000060     drivers_cc13xxware.aem3 : PowerCC26XX_calibrateRCOSC.oem3 (.text:PowerCC26XX_RCOSC_clockFunc)
                  00006f00    00000060     rf_singleMode_cc13xxware.aem3 : RFCC26XX_singleMode.oem3 (.text:fsmXOSCState)
                  00006f60    00000060     drivers_cc13xxware.aem3 : PowerCC26XX_calibrateRCOSC.oem3 (.text:updateSubSecInc)
                  00006fc0    0000005c     driverlib.lib : sys_ctrl.obj (.text:NOROM_SysCtrlAdjustRechargeAfterPowerDown)
                  0000701c    0000005c     NodeRadioTask.obj (.text:NodeRadioTask_sendAdcData)
                  00007078    0000005c     drivers_cc13xxware.aem3 : PINCC26XX.oem3 (.text:PIN_remove)
                  000070d4    0000005c     smartrf_settings.obj (.text:configureGenfskPatch)
                  00007130    0000005c     smartrf_settings_predefined.obj (.text:configureGenfskPatch)
                  0000718c    0000005c     smartrf_settings_predefined.obj (.text:configureGenookPatch)
                  000071e8    0000005c     smartrf_settings_predefined.obj (.text:configureLrmPatch)
                  00007244    0000005c     main_pem3.oem3 (.text:xdc_runtime_Startup_getState__I)
                  000072a0    0000005b     rom_sysbios.aem3 : rom_sysbios.obj (.text:xdc_runtime_Text_putLab__E)
                  000072fb    00000001     --HOLE-- [fill = 0]
                  000072fc    00000058     drivers_cc13xxware.aem3 : GPTimerCC26XX.oem3 (.text:GPTimerCC26XX_stop)
                  00007354    00000058     rtsv7M3_T_le_eabi.lib : hostwrite.c.obj (.text:HOSTwrite)
                  000073ac    00000058     drivers_cc13xxware.aem3 : I2CCC26XX.oem3 (.text:I2CCC26XX_swiFxn)
                  00007404    00000058                             : PowerCC26XX_calibrateRCOSC.oem3 (.text:PowerCC26XX_initiateCalibration)
                  0000745c    00000058     NodeRadioTask.obj (.text:rxDoneCallback)
                  000074b4    00000058     scif_framework.obj (.text:scifReinitIo)
                  0000750c    00000058     scif_framework.obj (.text:scifUninitIo)
                  00007564    00000054     SceAdc.obj (.text:SceAdc_init)
                  000075b8    00000054     drivers_cc13xxware.aem3 : PowerCC26XX.oem3 (.text:configureXOSCHF)
                  0000760c    00000054     rf_singleMode_cc13xxware.aem3 : RFCC26XX_singleMode.oem3 (.text:hwiFxnHw)
                  00007660    00000054                                   : RFCC26XX_singleMode.oem3 (.text:ratChanFree)
                  000076b4    00000050     Sensor.obj (.text:I2C_send)
                  00007704    00000050     driverlib.lib : setup_rom.obj (.text:NOROM_SetupSetCacheModeAccordingToCcfgSetting)
                  00007754    00000050     rf_singleMode_cc13xxware.aem3 : RFCC26XX_singleMode.oem3 (.text:dispatchOpWhen)
                  000077a4    00000050                                   : RFCC26XX_singleMode.oem3 (.text:syncCb)
                  000077f4    0000004c     drivers_cc13xxware.aem3 : GPTimerCC26XX.oem3 (.text:GPTimerCC26XX_start)
                  00007840    0000004c     rf_singleMode_cc13xxware.aem3 : RFCC26XX_singleMode.oem3 (.text:applyRfCorePatch)
                  0000788c    0000004c     rtsv7M3_T_le_eabi.lib : cpy_tbl.c.obj (.text:copy_in)
                  000078d8    00000048     drivers_cc13xxware.aem3 : GPTimerCC26XX.oem3 (.text:GPTimerCC26XXHwiFxn)
                  00007920    00000048                             : I2CCC26XX.oem3 (.text:I2CCC26XX_initHw)
                  00007968    00000048     driverlib.lib : chipinfo.obj (.text:NOROM_ChipInfo_GetChipFamily)
                  000079b0    00000048     drivers_cc13xxware.aem3 : PINCC26XX.oem3 (.text:PIN_swi)
                  000079f8    00000048     rf_singleMode_cc13xxware.aem3 : RFCC26XX_singleMode.oem3 (.text:RF_runCmd)
                  00007a40    00000048     drivers_cc13xxware.aem3 : PowerCC26XX.oem3 (.text:notify)
                  00007a88    00000044     boot.aem3 : boot.oem3 (.text)
                  00007acc    00000044     main.obj (.text:main)
                  00007b10    00000044     rtsv7M3_T_le_eabi.lib : fd_tou_t2.asm.obj (.text)
                  00007b54    00000044     scif.obj (.text:scifStartRtcTicks)
                  00007b98    00000044     rom_sysbios.aem3 : rom_sysbios.obj (.text:xdc_runtime_SysMin_flush__E)
                  00007bdc    00000044                      : rom_sysbios.obj (.text:xdc_runtime_Text_xprintf__I)
                  00007c20    00000040     rtsv7M3_T_le_eabi.lib : u_divt2.asm.obj (.text)
                  00007c60    00000040     scif.obj (.text:scifStartRtcTicksNow)
                  00007ca0    0000003c     driverlib.lib : osc.obj (.text:NOROM_OSC_HPOSCRelativeFrequencyOffsetGet)
                  00007cdc    0000003c                   : rfc.obj (.text:NOROM_RFCSynthPowerDown)
                  00007d18    0000003c     drivers_cc13xxware.aem3 : PINCC26XX.oem3 (.text:PIN_setOutputValue)
                  00007d54    00000038                             : I2C.oem3 (.text:I2C_init)
                  00007d8c    00000038     rtsv7M3_T_le_eabi.lib : trgmsg.c.obj (.text:__TI_writemsg)
                  00007dc4    00000038     rom_sysbios.aem3 : rom_sysbios.obj (.text:ti_sysbios_family_arm_cc26xx_Timer_getCurrentTick__E)
                  00007dfc    00000038                      : rom_sysbios.obj (.text:xdc_runtime_SysMin_putch__E)
                  00007e34    00000036                      : rom_sysbios.obj (.text:ti_sysbios_family_arm_cc26xx_Timer_setNextTick__E)
                  00007e6a    00000036     rf_singleMode_cc13xxware.aem3 : RFCC26XX_singleMode.oem3 (.text:updateImplicitState)
                  00007ea0    00000034     drivers_cc13xxware.aem3 : GPTimerCC26XX.oem3 (.text:GPTimerCC26XXSetLoadMatch)
                  00007ed4    00000034                             : GPTimerCC26XX.oem3 (.text:GPTimerCC26XX_initHw)
                  00007f08    00000034     driverlib.lib : osc.obj (.text:NOROM_OSCHF_SwitchToRcOscTurnOffXosc)
                  00007f3c    00000034     drivers_cc13xxware.aem3 : PINCC26XX.oem3 (.text:PIN_setConfig)
                  00007f70    00000034     rf_singleMode_cc13xxware.aem3 : RFCC26XX_singleMode.oem3 (.text:Q_push)
                  00007fa4    00000034     rtsv7M3_T_le_eabi.lib : trgmsg.c.obj (.text:__TI_readmsg)
                  00007fd8    00000034     NodeTask.obj (.text:buttonCallback)
                  0000800c    00000034     scif_framework.obj (.text:scifAckAlertEvents)
                  00008040    00000034     SceAdc.obj (.text:taskAlertCallback)
                  00008074    00000034     rom_sysbios.aem3 : rom_sysbios.obj (.text:ti_sysbios_family_arm_cc26xx_Timer_initDevice__I)
                  000080a8    00000030     drivers_cc13xxware.aem3 : I2C.oem3 (.text:I2C_open)
                  000080d8    00000030     driverlib.lib : chipinfo.obj (.text:NOROM_ChipInfo_GetChipType)
                  00008108    00000030                   : setup_rom.obj (.text:NOROM_SetupSetAonRtcSubSecInc)
                  00008138    00000030     drivers_cc13xxware.aem3 : PowerCC26XX.oem3 (.text:Power_releaseConstraint)
                  00008168    00000030                             : PowerCC26XX.oem3 (.text:Power_setConstraint)
                  00008198    00000030     rf_singleMode_cc13xxware.aem3 : RFCC26XX_singleMode.oem3 (.text:clkPowerUpFxn)
                  000081c8    00000030     scif_framework.obj (.text:osalRegisterCtrlReadyInt)
                  000081f8    00000030     scif_framework.obj (.text:osalRegisterTaskAlertInt)
                  00008228    00000030     main_pem3.oem3 (.text:ti_sysbios_BIOS_atExitFunc__I)
                  00008258    00000030     main_pem3.oem3 (.text:ti_sysbios_BIOS_startFunc__I)
                  00008288    00000030     rom_sysbios.aem3 : rom_sysbios.obj (.text:ti_sysbios_family_arm_cc26xx_Timer_setThreshold__I)
                  000082b8    00000030                      : rom_sysbios.obj (.text:xdc_runtime_SysMin_abort__E)
                  000082e8    0000002f                      : rom_sysbios.obj (.text:xdc_runtime_Text_printVisFxn__I)
                  00008317    00000001     --HOLE-- [fill = 0]
                  00008318    0000002c     drivers_cc13xxware.aem3 : GPTimerCC26XX.oem3 (.text:GPTimerCC26XX_getTimerValue)
                  00008344    0000002c     driverlib.lib : ddi.obj (.text:NOROM_DDI32RegWrite)
                  00008370    0000002c                   : osc.obj (.text:NOROM_OSCClockSourceGet)
                  0000839c    0000002c                   : setup_rom.obj (.text:NOROM_SetupGetTrimForRadcExtCfg)
                  000083c8    0000002c     drivers_cc13xxware.aem3 : PINCC26XX.oem3 (.text:PINCC26XX_setMux)
                  000083f4    0000002c     EasyLink.obj (.text:asyncCmdCallback)
                  00008420    0000002c     rf_singleMode_cc13xxware.aem3 : RFCC26XX_singleMode.oem3 (.text:getCmd)
                  0000844c    0000002c     scif_framework.obj (.text:osalLockCtrlTaskNbl)
                  00008478    0000002c     rom_sysbios.aem3 : rom_sysbios.obj (.text:ti_sysbios_knl_Clock_getTicksUntilInterrupt__E)
                  000084a4    0000002c     main_pem3.oem3 (.text:ti_sysbios_knl_Event_construct)
                  000084d0    0000002c     rom_sysbios.aem3 : rom_sysbios.obj (.text:ti_sysbios_knl_Event_pendTimeout__I)
                  000084fc    0000002a     drivers_cc13xxware.aem3 : GPTimerCC26XX.oem3 (.text:GPTimerCC26XXLookupMask)
                  00008526    0000002a     rom_sysbios.aem3 : rom_sysbios.obj (.text:xdc_runtime_System_putchar__I)
                  00008550    00000028     drivers_cc13xxware.aem3 : GPTimerCC26XX.oem3 (.text:GPTimerCC26XX_configureDebugStall)
                  00008578    00000028     driverlib.lib : aon_batmon.obj (.text:NOROM_AONBatMonTemperatureGetDegC)
                  000085a0    00000028     drivers_cc13xxware.aem3 : PowerCC26XX.oem3 (.text:Power_registerNotify)
                  000085c8    00000028     rf_singleMode_cc13xxware.aem3 : RFCC26XX_singleMode.oem3 (.text:Q_end)
                  000085f0    00000028     driverlib.lib : adi.obj (.text:SafeHapiVoid)
                  00008618    00000026     drivers_cc13xxware.aem3 : List.oem3 (.text:List_put)
                  0000863e    00000024                             : GPTimerCC26XX.oem3 (.text:GPTimerCC26XXReverseLookupMask)
                  00008662    00000002     smartrf_settings_predefined.obj (.text:enterLrmSysPatch)
                  00008664    00000024     drivers_cc13xxware.aem3 : GPTimerCC26XX.oem3 (.text:GPTimerCC26XX_enableInterrupt)
                  00008688    00000024                             : PINCC26XX.oem3 (.text:PINCC26XX_getPinCount)
                  000086ac    00000024     SceAdc.obj (.text:SceAdc_setReportInterval)
                  000086d0    00000024     NodeTask.obj (.text:adcCallback)
                  000086f4    00000024     drivers_cc13xxware.aem3 : PowerCC26XX_calibrateRCOSC.oem3 (.text:getTdcSemaphore)
                  00008718    00000024     rf_singleMode_cc13xxware.aem3 : RFCC26XX_singleMode.oem3 (.text:hwiFxnCpe0PowerFsm)
                  0000873c    00000024     scif_framework.obj (.text:osalIndicateCtrlReady)
                  00008760    00000024     scif_framework.obj (.text:scifOsalInit)
                  00008784    00000024     main_pem3.oem3 (.text:ti_sysbios_BIOS_registerRTSLock__I)
                  000087a8    00000024     main_pem3.oem3 (.text:ti_sysbios_BIOS_removeRTSLock__I)
                  000087cc    00000024     rom_sysbios.aem3 : rom_sysbios.obj (.text:ti_sysbios_family_arm_cc26xx_Timer_getMaxTicks__E)
                  000087f0    00000024                      : rom_sysbios.obj (.text:xdc_runtime_System_vprintf__E)
                  00008814    00000022     main_pem3.oem3 (.text:xdc_runtime_SysMin_output__I)
                  00008836    00000002     rtsv7M3_T_le_eabi.lib : div0.asm.obj (.text)
                  00008838    00000020     driverlib.lib : rfc.obj (.text:NOROM_RFCAdi3VcoLdoVoltageMode)
                  00008858    00000020                   : rfc.obj (.text:NOROM_RFCDoorbellSendTo)
                  00008878    00000020                   : setup_rom.obj (.text:NOROM_SetupGetTrimForXoscHfCtl)
                  00008898    00000020     drivers_cc13xxware.aem3 : PowerCC26XX.oem3 (.text:Power_unregisterNotify)
                  000088b8    00000020     rf_singleMode_cc13xxware.aem3 : RFCC26XX_singleMode.oem3 (.text:allocCmd)
                  000088d8    00000020     NodeRadioTask.obj (.text:returnRadioOperationStatus)
                  000088f8    00000020     rtsv7M3_T_le_eabi.lib : u_tofd_t2.asm.obj (.text)
                  00008918    00000020     main_pem3.oem3 (.text:ti_sysbios_BIOS_rtsLock__I)
                  00008938    00000020     rom_sysbios.aem3 : rom_sysbios.obj (.text:ti_sysbios_family_arm_cc26xx_Timer_dynamicStub__E)
                  00008958    00000020                      : rom_sysbios.obj (.text:ti_sysbios_knl_Clock_stop__E)
                  00008978    00000020                      : rom_sysbios.obj (.text:ti_sysbios_knl_Event_checkEvents__I)
                  00008998    00000020                      : rom_sysbios.obj (.text:xdc_runtime_SysMin_Module_startup__E)
                  000089b8    0000001e     drivers_cc13xxware.aem3 : PINCC26XX.oem3 (.text:PIN_close)
                  000089d6    0000001e                             : PowerCC26XX.oem3 (.text:Power_getTransitionLatency)
                  000089f4    0000001c     driverlib.lib : setup_rom.obj (.text:NOROM_SetupGetTrimForAmpcompTh2)
                  00008a10    0000001c                   : setup_rom.obj (.text:NOROM_SetupGetTrimForRcOscLfRtuneCtuneTrim)
                  00008a2c    0000001c     drivers_cc13xxware.aem3 : PINCC26XX.oem3 (.text:PINCC26XX_setIoCfgMux)
                  00008a48    0000001c                             : PINCC26XX.oem3 (.text:PIN_hwi)
                  00008a64    0000001c     smartrf_settings.obj (.text:enterGenfskCpePatch)
                  00008a80    0000001c     smartrf_settings_predefined.obj (.text:enterGenfskCpePatch)
                  00008a9c    0000001c     smartrf_settings_predefined.obj (.text:enterGenookCpePatch)
                  00008ab8    0000001c     smartrf_settings_predefined.obj (.text:enterLrmCpePatch)
                  00008ad4    0000001c     rom_sysbios.aem3 : rom_sysbios.obj (.text:ti_sysbios_family_arm_m3_Hwi_clearInterrupt__E)
                  00008af0    0000001c                      : rom_sysbios.obj (.text:xdc_runtime_Registry_findById__E)
                  00008b0c    0000001c                      : rom_sysbios.obj (.text:xdc_runtime_SysMin_exit__E)
                  00008b28    0000001a     drivers_cc13xxware.aem3 : List.oem3 (.text:List_remove)
                  00008b42    0000001a     rom_sysbios.aem3 : rom_sysbios_config.obj (.text:xdc_runtime_System_printf__E)
                  00008b5c    00000018     driverlib.lib : aon_rtc.obj (.text:NOROM_AONRTCCurrentCompareValueGet)
                  00008b74    00000018                   : chipinfo.obj (.text:NOROM_ChipInfo_GetPackageType)
                  00008b8c    00000018                   : osc.obj (.text:NOROM_OSCHF_TurnOnXosc)
                  00008ba4    00000018                   : rfc.obj (.text:NOROM_RFCCpeIntGetAndClear)
                  00008bbc    00000018                   : setup_rom.obj (.text:NOROM_SetupGetTrimForAdcShModeEn)
                  00008bd4    00000018                   : setup_rom.obj (.text:NOROM_SetupGetTrimForAdcShVbufEn)
                  00008bec    00000018                   : setup_rom.obj (.text:NOROM_SetupGetTrimForAmpcompTh1)
                  00008c04    00000018                   : setup_rom.obj (.text:NOROM_SetupGetTrimForDblrLoopFilterResetVoltage)
                  00008c1c    00000018                   : setup_rom.obj (.text:NOROM_SetupGetTrimForRcOscLfIBiasTrim)
                  00008c34    00000018                   : setup_rom.obj (.text:NOROM_SetupGetTrimForXoscLfRegulatorAndCmirrwrRatio)
                  00008c4c    00000018     drivers_cc13xxware.aem3 : PowerCC26XX.oem3 (.text:Power_idleFunc)
                  00008c64    00000018     rf_singleMode_cc13xxware.aem3 : RFCC26XX_singleMode.oem3 (.text:Q_pop)
                  00008c7c    00000018     rtsv7M3_T_le_eabi.lib : args_main.c.obj (.text:_args_main)
                  00008c94    00000018     drivers_cc13xxware.aem3 : PowerCC26XX.oem3 (.text:configureRFCoreClocks)
                  00008cac    00000018     rtsv7M3_T_le_eabi.lib : ll_mul_t2.asm.obj (.text)
                  00008cc4    00000018     scif_framework.obj (.text:scifClearAlertIntSource)
                  00008cdc    00000018     rf_singleMode_cc13xxware.aem3 : RFCC26XX_singleMode.oem3 (.text:swiFxnFsm)
                  00008cf4    00000018     main_pem3.oem3 (.text:ti_sysbios_BIOS_rtsUnlock__I)
                  00008d0c    00000018     rom_sysbios.aem3 : rom_sysbios.obj (.text:ti_sysbios_knl_Swi_or__E)
                  00008d24    00000016     driverlib.lib : chipinfo.obj (.text:NOROM_ThisCodeIsBuiltForCC13xxHwRev20AndLater_HaltIfViolated)
                  00008d3a    00000016     main_pem3.oem3 (.text:ti_sysbios_BIOS_exitFunc__I)
                  00008d50    00000016     scif_framework.obj (.text:ti_sysbios_family_arm_m3_Hwi_Params_init)
                  00008d66    00000016     NodeRadioTask.obj (.text:ti_sysbios_knl_Event_Params_init)
                  00008d7c    00000016     NodeTask.obj (.text:ti_sysbios_knl_Event_Params_init)
                  00008d92    00000016     EasyLink.obj (.text:ti_sysbios_knl_Semaphore_Params_init)
                  00008da8    00000016     NodeRadioTask.obj (.text:ti_sysbios_knl_Semaphore_Params_init)
                  00008dbe    00000016     scif_framework.obj (.text:ti_sysbios_knl_Semaphore_Params_init)
                  00008dd4    00000016     NodeRadioTask.obj (.text:ti_sysbios_knl_Task_Params_init)
                  00008dea    00000016     NodeTask.obj (.text:ti_sysbios_knl_Task_Params_init)
                  00008e00    00000016     Sensor.obj (.text:ti_sysbios_knl_Task_Params_init)
                  00008e16    00000002     rom_sysbios.aem3 : rom_sysbios.obj (.text:ti_sysbios_BIOS_linkedWithIncorrectBootLibrary__E)
                  00008e18    00000014     NodeRadioTask.obj (.text:AONBatMonBatteryVoltageGet)
                  00008e2c    00000014     driverlib.lib : aon_rtc.obj (.text:NOROM_AONRTCCurrent64BitValueGet)
                  00008e40    00000014     drivers_cc13xxware.aem3 : PINCC26XX.oem3 (.text:PINCC26XX_getInputValue)
                  00008e54    00000014                             : PINCC26XX.oem3 (.text:PINCC26XX_getOutputValue)
                  00008e68    00000014     rf_singleMode_cc13xxware.aem3 : RFCC26XX_singleMode.oem3 (.text:RF_Params_init)
                  00008e7c    00000014     SceAdc.obj (.text:SceAdc_registerAdcCallback)
                  00008e90    00000014     scif_framework.obj (.text:osalIndicateTaskAlert)
                  00008ea4    00000014     scif_framework.obj (.text:scifOsalRegisterCtrlReadyCallback)
                  00008eb8    00000014     scif_framework.obj (.text:scifOsalRegisterTaskAlertCallback)
                  00008ecc    00000014     rtsv7M3_T_le_eabi.lib : strlen.c.obj (.text:strlen)
                  00008ee0    00000014     main_pem3.oem3 (.text:ti_sysbios_knl_Clock_doTick__I)
                  00008ef4    00000014     rom_sysbios.aem3 : rom_sysbios.obj (.text:ti_sysbios_knl_Event_Instance_init__E)
                  00008f08    00000012     Sensor.obj (.text:readRawHumidity)
                  00008f1a    00000012     Sensor.obj (.text:readRawPressure)
                  00008f2c    00000012     Sensor.obj (.text:readRawTemperature)
                  00008f3e    00000012     scif_framework.obj (.text:scifStartTasksNbl)
                  00008f50    00000012     scif.obj (.text:scifTaskResourceInit)
                  00008f62    00000012     main_pem3.oem3 (.text:xdc_runtime_Startup_exec__I)
                  00008f74    00000010     rf_singleMode_cc13xxware.aem3 : RFCC26XX_singleMode.oem3 (.text:FsmDispatch)
                  00008f84    00000010     Sensor.obj (.text:GPTimerCC26XX_getPinMux)
                  00008f94    00000010     drivers_cc13xxware.aem3 : I2C.oem3 (.text:I2C_Params_init)
                  00008fa4    00000010     driverlib.lib : rfc.obj (.text:NOROM_RFCRfTrimSet)
                  00008fb4    00000010                   : setup_rom.obj (.text:NOROM_SetupGetTrimForXoscHfFastStart)
                  00008fc4    00000010                   : setup_rom.obj (.text:NOROM_SetupGetTrimForXoscHfIbiastherm)
                  00008fd4    00000010     smartrf_settings.obj (.text:applyGenfskPatch)
                  00008fe4    00000010     smartrf_settings_predefined.obj (.text:applyGenfskPatch)
                  00008ff4    00000010     smartrf_settings_predefined.obj (.text:applyGenookPatch)
                  00009004    00000010     smartrf_settings_predefined.obj (.text:applyLrmPatch)
                  00009014    00000010     NodeTask.obj (.text:fastReportTimeoutCallback)
                  00009024    00000010     drivers_cc13xxware.aem3 : I2CCC26XX.oem3 (.text:i2cPostNotify)
                  00009034    00000010     rom_sysbios.aem3 : rom_sysbios.obj (.text:ti_sysbios_family_arm_m3_Hwi_post__E)
                  00009044    00000010                      : rom_sysbios.obj (.text:xdc_runtime_SysMin_ready__E)
                  00009054    00000010                      : rom_sysbios.obj (.text:xdc_runtime_System_vsnprintf__E)
                  00009064    0000000e     driverlib.lib : vims.obj (.text:NOROM_VIMSModeGet)
                  00009072    0000000e     rtsv7M3_T_le_eabi.lib : copy_decompress_none.c.obj (.text:decompress:none:__TI_decompress_none)
                  00009080    0000000e     scif_framework.obj (.text:osalCtrlReadyIsr)
                  0000908e    0000000e     scif_framework.obj (.text:osalTaskAlertIsr)
                  0000909c    0000000e     scif.obj (.text:scifTaskResourceUninit)
                  000090aa    0000000e     rom_sysbios.aem3 : rom_sysbios.obj (.text:ti_sysbios_family_arm_cc26xx_TimestampProvider_get32__E)
                  000090b8    0000000c     rf_singleMode_cc13xxware.aem3 : RFCC26XX_singleMode.oem3 (.text:FsmNextState)
                  000090c4    0000000c     drivers_cc13xxware.aem3 : GPTimerCC26XX.oem3 (.text:GPTimerCC26XX_Params_init)
                  000090d0    0000000c     driverlib.lib : cpu.obj (.text:NOROM_CPUcpsid)
                  000090dc    0000000c                   : cpu.obj (.text:NOROM_CPUcpsie)
                  000090e8    0000000c     drivers_cc13xxware.aem3 : PINCC26XX.oem3 (.text:PIN_registerIntCb)
                  000090f4    0000000c                             : PowerCC26XX.oem3 (.text:Power_getConstraintMask)
                  00009100    0000000c                             : PowerCC26XX.oem3 (.text:Power_getDependencyCount)
                  0000910c    0000000c     NodeRadioTask.obj (.text:TRNGDisable)
                  00009118    0000000c     NodeRadioTask.obj (.text:TRNGEnable)
                  00009124    0000000c     NodeRadioTask.obj (.text:TRNGStatusGet)
                  00009130    0000000c     rtsv7M3_T_le_eabi.lib : _lock.c.obj (.text:_register_lock)
                  0000913c    0000000c                           : _lock.c.obj (.text:_register_unlock)
                  00009148    0000000c                           : copy_zero_init.c.obj (.text:decompress:ZI:__TI_zero_init)
                  00009154    0000000c     scif_framework.obj (.text:osalUnlockCtrlTaskNbl)
                  00009160    0000000c     scif_framework.obj (.text:scifGetAlertEvents)
                  0000916c    0000000c     scif_framework.obj (.text:scifOsalLeaveCriticalSection)
                  00009178    0000000c     NodeTask.obj (.text:ti_sysbios_knl_Clock_handle)
                  00009184    0000000c     main_pem3.oem3 (.text:ti_sysbios_knl_Event_Params__init__S)
                  00009190    0000000c     NodeRadioTask.obj (.text:ti_sysbios_knl_Event_handle)
                  0000919c    0000000c     NodeTask.obj (.text:ti_sysbios_knl_Event_handle)
                  000091a8    0000000c     NodeRadioTask.obj (.text:ti_sysbios_knl_Semaphore_handle)
                  000091b4    0000000c     scif_framework.obj (.text:ti_sysbios_knl_Semaphore_handle)
                  000091c0    0000000c     rom_sysbios.aem3 : rom_sysbios.obj (.text:ti_sysbios_knl_Swi_getTrigger__E)
                  000091cc    0000000c                      : rom_sysbios.obj (.text:xdc_runtime_Startup_rtsDone__E)
                  000091d8    0000000a     drivers_cc13xxware.aem3 : I2CCC26XX.oem3 (.text:I2CCC26XX_init)
                  000091e2    0000000a                             : I2C.oem3 (.text:I2C_transfer)
                  000091ec    0000000a                             : List.oem3 (.text:List_empty)
                  000091f6    0000000a     SceAdc.obj (.text:SceAdc_start)
                  00009200    0000000a     scif_framework.obj (.text:osalClearCtrlReadyInt)
                  0000920a    0000000a     scif_framework.obj (.text:osalClearTaskAlertInt)
                  00009214    0000000a     scif_framework.obj (.text:osalDisableCtrlReadyInt)
                  0000921e    0000000a     scif_framework.obj (.text:osalDisableTaskAlertInt)
                  00009228    0000000a     scif_framework.obj (.text:osalEnableCtrlReadyInt)
                  00009232    0000000a     scif_framework.obj (.text:osalEnableTaskAlertInt)
                  0000923c    00000008     drivers_cc13xxware.aem3 : GPTimerCC26XX.oem3 (.text:GPTimerCC26XX_setLoadValue)
                  00009244    00000008                             : I2CCC26XX.oem3 (.text:I2CCC26XX_blockingCallback)
                  0000924c    00000008     smartrf_settings.obj (.text:rf_patch_cpe_genfsk)
                  00009254    00000008     smartrf_settings_predefined.obj (.text:rf_patch_cpe_genfsk)
                  0000925c    00000008     smartrf_settings_predefined.obj (.text:rf_patch_cpe_genook)
                  00009264    00000008     smartrf_settings_predefined.obj (.text:rf_patch_cpe_lrm)
                  0000926c    00000008     scif_framework.obj (.text:scifOsalEnterCriticalSection)
                  00009274    00000008     main_pem3.oem3 (.text:xdc_runtime_Text_visitRope__I)
                  0000927c    00000006     drivers_cc13xxware.aem3 : GPTimerCC26XX.oem3 (.text:GPTimerCC26XX_getValue)
                  00009282    00000006                             : I2CCC26XX.oem3 (.text:I2CCC26XX_control)
                  00009288    00000006     driverlib.lib : cpu.obj (.text:NOROM_CPUdelay)
                  0000928e    00000006     rf_singleMode_cc13xxware.aem3 : RFCC26XX_singleMode.oem3 (.text:clkInactivityFxn)
                  00009294    00000006     rom_sysbios.aem3 : rom_sysbios.obj (.text:ti_sysbios_family_arm_m3_Hwi_setFunc__E)
                  0000929a    00000004     tirtosport.aem3 : HwiP_tirtos.oem3 (.text:HwiP_disable)
                  0000929e    00000004     drivers_cc13xxware.aem3 : List.oem3 (.text:List_head)
                  000092a2    00000004                             : List.oem3 (.text:List_next)
                  000092a6    00000004     rf_singleMode_cc13xxware.aem3 : RFCC26XX_singleMode.oem3 (.text:Q_peek)
                  000092aa    00000004     drivers_cc13xxware.aem3 : PowerCC26XX.oem3 (.text:nopResourceHandler)
                  000092ae    00000004     rom_sysbios.aem3 : rom_sysbios.obj (.text:ti_sysbios_family_arm_cc26xx_Timer_getCount64__E)
                  000092b2    00000004     main_pem3.oem3 (.text:xdc_runtime_Startup_reset__I)
                  000092b6    00000004     rom_sysbios.aem3 : rom_sysbios.obj (.text:xdc_runtime_System_printf_va__F)
                  000092ba    00000002     main_pem3.oem3 (.text:ti_sysbios_BIOS_nullFunc__I)
                  000092bc    00000002     rom_sysbios.aem3 : rom_sysbios.obj (.text:ti_sysbios_knl_Clock_triggerFunc__I)
                  000092be    00000002                      : rom_sysbios.obj (.text:xdc_runtime_SysCallback_defaultAbort)
                  000092c0    00000002                      : rom_sysbios.obj (.text:xdc_runtime_SysCallback_defaultExit)
                  000092c2    00000002     --HOLE-- [fill = 0]
                  000092c4    00000008     (.tramp.xdc_runtime_Core_assignParams__I.1)
                  000092cc    00000008     (.tramp.xdc_runtime_Startup_startMods__I.1)
                  000092d4    00000008     (.tramp.ti_sysbios_knl_Queue_construct.1)
                  000092dc    00000008     (.tramp.ti_sysbios_knl_Clock_logTick__E.1)
                  000092e4    00000008     (.tramp.ti_sysbios_knl_Task_Params__init__S.1)
                  000092ec    00000008     (.tramp.ti_sysbios_BIOS_RtsGateProxy_leave__E.1)
                  000092f4    00000008     (.tramp.ti_sysbios_BIOS_RtsGateProxy_enter__E.1)
                  000092fc    00000008     (.tramp.xdc_runtime_Core_constructObject__I.1)
                  00009304    00000008     (.tramp.ti_sysbios_knl_Task_startup__E.1)
                  0000930c    00000008     (.tramp.ti_sysbios_knl_Swi_startup__E.1)
                  00009314    00000008     (.tramp.ti_sysbios_hal_Hwi_startup__E.1)
                  0000931c    00000008     (.tramp.ti_sysbios_family_arm_cc26xx_Timer_startup__E.1)
                  00009324    00000008     (.tramp.xdc_runtime_System_atexit__E.1)
                  0000932c    00000008     (.tramp.ti_sysbios_BIOS_setThreadType__E.1)
                  00009334    00000008     (.tramp.xdc_runtime_Gate_leaveSystem__E.1)
                  0000933c    00000008     (.tramp.xdc_runtime_Gate_enterSystem__E.1)
                  00009344    00000008     (.tramp.ti_sysbios_BIOS_start__E.1)
                  0000934c    00000008     (.tramp.xdc_runtime_System_exit__E.1)
                  00009354    00000008     (.tramp.ti_sysbios_BIOS_getCpuFreq__E.1)
                  0000935c    00000008     (.tramp.ti_sysbios_knl_Task_unblockI__E.1)
                  00009364    00000008     (.tramp.ti_sysbios_knl_Queue_remove__E.1)
                  0000936c    00000008     (.tramp.ti_sysbios_knl_Queue_head__E.1)
                  00009374    00000008     (.tramp.ti_sysbios_knl_Queue_empty__E.1)
                  0000937c    00000008     (.tramp.ti_sysbios_knl_Clock_scheduleNextTick__E.1)
                  00009384    00000008     (.tramp.ti_sysbios_knl_Clock_walkQueueDynamic__E.1)
                  0000938c    00000008     (.tramp.ti_sysbios_knl_Clock_TimerProxy_getCurrentTick__E.1)
                  00009394    00000008     (.tramp.ti_sysbios_family_arm_m3_Hwi_disableInterrupt__E.1)
                  0000939c    00000008     (.tramp.ti_sysbios_family_arm_m3_Hwi_enableInterrupt__E.1)
                  000093a4    00000008     (.tramp.ti_sysbios_knl_Clock_removeI__E.1)
                  000093ac    00000008     (.tramp.ti_sysbios_knl_Clock_startI__E.1)
                  000093b4    00000008     (.tramp.ti_sysbios_knl_Task_blockI__E.1)
                  000093bc    00000008     (.tramp.ti_sysbios_knl_Queue_enqueue__E.1)
                  000093c4    00000008     (.tramp.ti_sysbios_knl_Task_self__E.1)
                  000093cc    00000008     (.tramp.ti_sysbios_knl_Clock_addI__E.1)
                  000093d4    00000008     (.tramp.ti_sysbios_knl_Swi_post__E.1)
                  000093dc    00000008     (.tramp.ti_sysbios_family_arm_m3_Hwi_destruct.1)
                  000093e4    00000008     (.tramp.ti_sysbios_knl_Swi_destruct.1)
                  000093ec    00000008     (.tramp.ti_sysbios_knl_Clock_destruct.1)
                  000093f4    00000008     (.tramp.ti_sysbios_knl_Semaphore_destruct.1)
                  000093fc    00000008     (.tramp.ti_sysbios_knl_Clock_construct.1)
                  00009404    00000008     (.tramp.ti_sysbios_knl_Clock_Params__init__S.1)
                  0000940c    00000008     (.tramp.ti_sysbios_knl_Task_construct.1)
                  00009414    00000008     (.tramp.ti_sysbios_knl_Task_sleep__E.1)
                  0000941c    00000008     (.tramp.xdc_runtime_System_abortSpin__E.1)
                  00009424    00000008     (.tramp.ti_sysbios_knl_Swi_construct.1)
                  0000942c    00000008     (.tramp.ti_sysbios_knl_Swi_Params__init__S.1)
                  00009434    00000008     (.tramp.ti_sysbios_family_arm_m3_Hwi_construct.1)
                  0000943c    00000008     (.tramp.ti_sysbios_family_arm_m3_Hwi_Params__init__S.1)
                  00009444    00000008     (.tramp.ti_sysbios_knl_Semaphore_construct.1)
                  0000944c    00000008     (.tramp.ti_sysbios_knl_Semaphore_Params__init__S.1)
                  00009454    00000008     (.tramp.ti_sysbios_knl_Clock_getTicks__E.1)
                  0000945c    00000008     (.tramp.xdc_runtime_System_abort__E.1)
                  00009464    00000008     (.tramp.ti_sysbios_knl_Task_restore__E.1)
                  0000946c    00000008     (.tramp.ti_sysbios_knl_Swi_restore__E.1)
                  00009474    00000008     (.tramp.ti_sysbios_knl_Swi_disable__E.1)
                  0000947c    00000008     (.tramp.ti_sysbios_knl_Task_disable__E.1)
                  00009484    00000008     (.tramp.ti_sysbios_knl_Semaphore_create.1)
                  0000948c    00000008     (.tramp.xdc_runtime_Error_init__E.1)
                  00009494    00000008     (.tramp.ti_sysbios_knl_Semaphore_post__E.1)
                  0000949c    00000008     (.tramp.ti_sysbios_knl_Semaphore_pend__E.1)
                  000094a4    00000008     (.tramp.ti_sysbios_knl_Clock_start__E.1)
                  000094ac    00000008     (.tramp.ti_sysbios_knl_Clock_setTimeout__E.1)
                  000094b4    00000008     (.tramp.ti_sysbios_family_arm_m3_Hwi_restoreFxn__E.1)
                  000094bc    00000008     (.tramp.ti_sysbios_family_arm_m3_Hwi_disableFxn__E.1)

.const     0    000094c4    000039d2     
                  000094c4    0000073c     smartrf_settings_predefined.obj (.const:patchGenookMce)
                  00009c00    000006b4     smartrf_settings.obj (.const:patchGenfskRfe)
                  0000a2b4    000006b4     smartrf_settings_predefined.obj (.const:patchGenfskRfe)
                  0000a968    000006b4     smartrf_settings_predefined.obj (.const:patchLrmRfe)
                  0000b01c    000006a4     smartrf_settings_predefined.obj (.const:patchGenookRfe)
                  0000b6c0    00000504     smartrf_settings_predefined.obj (.const:patchHsp4mbpsRfe)
                  0000bbc4    000003f0     smartrf_settings_predefined.obj (.const:patchHsp4mbpsMce)
                  0000bfb4    0000028c     smartrf_settings.obj (.const:patchImageGenfsk)
                  0000c240    0000028c     smartrf_settings_predefined.obj (.const:patchImageGenfsk)
                  0000c4cc    0000028c     smartrf_settings_predefined.obj (.const:patchImageGenook)
                  0000c758    0000028c     smartrf_settings_predefined.obj (.const:patchImageLrm)
                  0000c9e4    000001ae     scif.obj (.const:pAuxRamImage)
                  0000cb92    00000002     main_pem3.oem3 (.const:xdc_runtime_SysMin_flushAtExit__C)
                  0000cb94    00000060     Plantsensor.obj (.const:GPTimerCC26XX_config)
                  0000cbf4    00000060     Plantsensor.obj (.const:gptimerCC26xxHWAttrs)
                  0000cc54    0000004c     drivers_cc13xxware.aem3 : PowerCC26XX.oem3 (.const:resourceDB)
                  0000cca0    00000048     main_pem3.oem3 (.const:.string)
                  0000cce8    00000028     main_pem3.oem3 (.const:xdc_runtime_Startup_sfxnTab__A)
                  0000cd10    00000024     scif.obj (.const:scifDriverSetup)
                  0000cd34    00000022     drivers_cc13xxware.aem3 : GPTimerCC26XX.oem3 (.const)
                  0000cd56    00000002     main_pem3.oem3 (.const:xdc_runtime_Text_registryModsLastId__C)
                  0000cd58    00000020     drivers_cc13xxware.aem3 : I2CCC26XX.oem3 (.const)
                  0000cd78    00000020     main_pem3.oem3 (.const:ti_sysbios_knl_Event_Object__DESC__C)
                  0000cd98    00000018     Plantsensor.obj (.const:I2C_config)
                  0000cdb0    00000018     Plantsensor.obj (.const:i2cCC26xxHWAttrs)
                  0000cdc8    00000018     main_pem3.oem3 (.const:ti_sysbios_knl_Event_Object__PARAMS__C)
                  0000cde0    00000014     rf_singleMode_cc13xxware.aem3 : RFCC26XX_singleMode.oem3 (.const)
                  0000cdf4    00000014     main_pem3.oem3 (.const:xdc_runtime_Startup_sfxnRts__A)
                  0000ce08    00000010     scif.obj (.const:.string:pAuxIoIndexToMcuIocfgOffsetLut)
                  0000ce18    00000010     Plantsensor.obj (.const:BoardGpioInitTable)
                  0000ce28    00000010     Plantsensor.obj (.const:PowerCC26XX_config)
                  0000ce38    00000010     drivers_cc13xxware.aem3 : I2C.oem3 (.const)
                  0000ce48    00000010     scif.obj (.const:pScifTaskDataStructInfoLut)
                  0000ce58    0000000c     main_pem3.oem3 (.const:xdc_runtime_Startup_firstFxns__A)
                  0000ce64    00000008     Plantsensor.obj (.const:PINCC26XX_hwAttrs)
                  0000ce6c    00000004     Plantsensor.obj (.const:RFCC26XX_hwAttrs)
                  0000ce70    00000004     main_pem3.oem3 (.const:ti_sysbios_knl_Clock_tickPeriod__C)
                  0000ce74    00000004     main_pem3.oem3 (.const:ti_sysbios_knl_Clock_triggerClock__C)
                  0000ce78    00000004     main_pem3.oem3 (.const:ti_sysbios_knl_Event_Instance_State_pendQ__O)
                  0000ce7c    00000004     main_pem3.oem3 (.const:ti_sysbios_knl_Idle_funcList__A)
                  0000ce80    00000004     main_pem3.oem3 (.const:xdc_runtime_SysMin_bufSize__C)
                  0000ce84    00000004     main_pem3.oem3 (.const:xdc_runtime_SysMin_outputFunc__C)
                  0000ce88    00000004     main_pem3.oem3 (.const:xdc_runtime_System_extendFxn__C)
                  0000ce8c    00000004     main_pem3.oem3 (.const:xdc_runtime_Text_visitRopeFxn__C)
                  0000ce90    00000003     Sensor.obj (.const:.string:$P$T0$1)
                  0000ce93    00000001     main_pem3.oem3 (.const:xdc_runtime_Text_charTab__A)
                  0000ce94    00000002     main_pem3.oem3 (.const:xdc_runtime_Text_unnamedModsLastId__C)

.cinit     0    00000040    00000428     
                  00000040    000002ee     (.cinit..data.load) [load image, compression = lzss]
                  0000032e    00000028     (.cinit..data:ti_sysbios_family_arm_m3_Hwi_Module__state__V.load) [load image, compression = lzss]
                  00000356    00000021     (.cinit..data:ti_sysbios_knl_Task_Module__state__V.load) [load image, compression = lzss]
                  00000377    0000001f     (.cinit..data:ti_sysbios_BIOS_Module__state__V.load) [load image, compression = lzss]
                  00000396    0000001e     (.cinit..data:ti_sysbios_knl_Clock_Module__state__V.load) [load image, compression = lzss]
                  000003b4    00000010     (.cinit..data:ti_sysbios_knl_Swi_Module__state__V.load) [load image, compression = lzss]
                  000003c4    0000000c     (__TI_handler_table)
                  000003d0    0000000b     (.cinit..data:ti_sysbios_family_arm_cc26xx_Timer_Module__state__V.load) [load image, compression = lzss]
                  000003db    0000000b     (.cinit..data:xdc_runtime_System_Module__state__V.load) [load image, compression = lzss]
                  000003e6    00000002     --HOLE-- [fill = 0]
                  000003e8    00000008     (.cinit..bss.load) [load image, compression = zero_init]
                  000003f0    00000008     (.cinit..data:xdc_runtime_Memory_Module__state__V.load) [load image, compression = lzss]
                  000003f8    00000007     (.cinit..data:ti_sysbios_family_arm_cc26xx_TimestampProvider_Module__state__V.load) [load image, compression = lzss]
                  000003ff    00000007     (.cinit..data:xdc_runtime_Startup_Module__state__V.load) [load image, compression = lzss]
                  00000406    00000002     --HOLE-- [fill = 0]
                  00000408    00000060     (__TI_cinit_table)

.init_array 
*          0    00000000    00000000     UNINITIALIZED

.ccfg      0    0001ffa8    00000058     
                  0001ffa8    00000058     ccfg.obj (.ccfg:retain)

.const:ti_sysbios_knl_Task_Object__PARAMS__C 
*          0    00001000    0000003c     
                  00001000    0000003c     main_pem3.oem3 (.const:ti_sysbios_knl_Task_Object__PARAMS__C)

.const:ti_sysbios_knl_Mailbox_Object__PARAMS__C 
*          0    0000103c    00000034     
                  0000103c    00000034     main_pem3.oem3 (.const:ti_sysbios_knl_Mailbox_Object__PARAMS__C)

.const:ti_sysbios_family_arm_m3_Hwi_Object__PARAMS__C 
*          0    00001070    00000030     
                  00001070    00000030     main_pem3.oem3 (.const:ti_sysbios_family_arm_m3_Hwi_Object__PARAMS__C)

.const:ti_sysbios_hal_Hwi_Object__PARAMS__C 
*          0    000010a0    0000002c     
                  000010a0    0000002c     main_pem3.oem3 (.const:ti_sysbios_hal_Hwi_Object__PARAMS__C)

.const:ti_sysbios_heaps_HeapMem_Module__FXNS__C 
*          0    000010cc    00000028     
                  000010cc    00000028     main_pem3.oem3 (.const:ti_sysbios_heaps_HeapMem_Module__FXNS__C)

.const:ti_sysbios_knl_Swi_Object__PARAMS__C 
*          0    000010f4    00000028     
                  000010f4    00000028     main_pem3.oem3 (.const:ti_sysbios_knl_Swi_Object__PARAMS__C)

.const:ti_sysbios_gates_GateHwi_Module__FXNS__C 
*          0    0000111c    00000024     
                  0000111c    00000024     main_pem3.oem3 (.const:ti_sysbios_gates_GateHwi_Module__FXNS__C)

.const:ti_sysbios_gates_GateMutex_Module__FXNS__C 
*          0    00001140    00000024     
                  00001140    00000024     main_pem3.oem3 (.const:ti_sysbios_gates_GateMutex_Module__FXNS__C)

.const:ti_sysbios_heaps_HeapMem_Object__PARAMS__C 
*          0    00001164    00000024     
                  00001164    00000024     main_pem3.oem3 (.const:ti_sysbios_heaps_HeapMem_Object__PARAMS__C)

.const:ti_sysbios_knl_Clock_Object__PARAMS__C 
*          0    00001188    00000024     
                  00001188    00000024     main_pem3.oem3 (.const:ti_sysbios_knl_Clock_Object__PARAMS__C)

.const:ti_sysbios_knl_Semaphore_Object__PARAMS__C 
*          0    000011ac    00000024     
                  000011ac    00000024     main_pem3.oem3 (.const:ti_sysbios_knl_Semaphore_Object__PARAMS__C)

.const:ti_sysbios_family_arm_m3_Hwi_Object__DESC__C 
*          0    000011d0    00000020     
                  000011d0    00000020     main_pem3.oem3 (.const:ti_sysbios_family_arm_m3_Hwi_Object__DESC__C)

.const:ti_sysbios_gates_GateHwi_Object__DESC__C 
*          0    000011f0    00000020     
                  000011f0    00000020     main_pem3.oem3 (.const:ti_sysbios_gates_GateHwi_Object__DESC__C)

.const:ti_sysbios_gates_GateMutex_Object__DESC__C 
*          0    00001210    00000020     
                  00001210    00000020     main_pem3.oem3 (.const:ti_sysbios_gates_GateMutex_Object__DESC__C)

.const:ti_sysbios_hal_Hwi_Object__DESC__C 
*          0    00001230    00000020     
                  00001230    00000020     main_pem3.oem3 (.const:ti_sysbios_hal_Hwi_Object__DESC__C)

.const:ti_sysbios_heaps_HeapMem_Object__DESC__C 
*          0    00001250    00000020     
                  00001250    00000020     main_pem3.oem3 (.const:ti_sysbios_heaps_HeapMem_Object__DESC__C)

.const:ti_sysbios_knl_Clock_Object__DESC__C 
*          0    00001270    00000020     
                  00001270    00000020     main_pem3.oem3 (.const:ti_sysbios_knl_Clock_Object__DESC__C)

.const:ti_sysbios_knl_Mailbox_Object__DESC__C 
*          0    00001290    00000020     
                  00001290    00000020     main_pem3.oem3 (.const:ti_sysbios_knl_Mailbox_Object__DESC__C)

.const:ti_sysbios_knl_Queue_Object__DESC__C 
*          0    000012b0    00000020     
                  000012b0    00000020     main_pem3.oem3 (.const:ti_sysbios_knl_Queue_Object__DESC__C)

.const:ti_sysbios_knl_Semaphore_Object__DESC__C 
*          0    000012d0    00000020     
                  000012d0    00000020     main_pem3.oem3 (.const:ti_sysbios_knl_Semaphore_Object__DESC__C)

.const:ti_sysbios_knl_Swi_Object__DESC__C 
*          0    000012f0    00000020     
                  000012f0    00000020     main_pem3.oem3 (.const:ti_sysbios_knl_Swi_Object__DESC__C)

.const:ti_sysbios_knl_Task_Object__DESC__C 
*          0    00001310    00000020     
                  00001310    00000020     main_pem3.oem3 (.const:ti_sysbios_knl_Task_Object__DESC__C)

.const:ti_sysbios_gates_GateHwi_Object__PARAMS__C 
*          0    00001330    00000018     
                  00001330    00000018     main_pem3.oem3 (.const:ti_sysbios_gates_GateHwi_Object__PARAMS__C)

.const:ti_sysbios_gates_GateMutex_Object__PARAMS__C 
*          0    00001348    00000018     
                  00001348    00000018     main_pem3.oem3 (.const:ti_sysbios_gates_GateMutex_Object__PARAMS__C)

.const:ti_sysbios_knl_Queue_Object__PARAMS__C 
*          0    00001360    00000018     
                  00001360    00000018     main_pem3.oem3 (.const:ti_sysbios_knl_Queue_Object__PARAMS__C)

.const:ti_sysbios_knl_Idle_funcList__C 
*          0    00001378    00000008     
                  00001378    00000008     main_pem3.oem3 (.const:ti_sysbios_knl_Idle_funcList__C)

.const:ti_sysbios_family_arm_cc26xx_Timer_startupNeeded__C 
*          0    00001384    00000004     
                  00001384    00000004     main_pem3.oem3 (.const:ti_sysbios_family_arm_cc26xx_Timer_startupNeeded__C)

.const:ti_sysbios_family_arm_m3_Hwi_E_alreadyDefined__C 
*          0    00001388    00000004     
                  00001388    00000004     main_pem3.oem3 (.const:ti_sysbios_family_arm_m3_Hwi_E_alreadyDefined__C)

.const:ti_sysbios_family_arm_m3_Hwi_E_hwiLimitExceeded__C 
*          0    0000138c    00000004     
                  0000138c    00000004     main_pem3.oem3 (.const:ti_sysbios_family_arm_m3_Hwi_E_hwiLimitExceeded__C)

.const:ti_sysbios_family_arm_m3_Hwi_NUM_INTERRUPTS__C 
*          0    00001390    00000004     
                  00001390    00000004     main_pem3.oem3 (.const:ti_sysbios_family_arm_m3_Hwi_NUM_INTERRUPTS__C)

.const:ti_sysbios_family_arm_m3_Hwi_Object__count__C 
*          0    00001394    00000004     
                  00001394    00000004     main_pem3.oem3 (.const:ti_sysbios_family_arm_m3_Hwi_Object__count__C)

.const:ti_sysbios_family_arm_m3_Hwi_Object__table__C 
*          0    00001398    00000004     
                  00001398    00000004     main_pem3.oem3 (.const:ti_sysbios_family_arm_m3_Hwi_Object__table__C)

.const:ti_sysbios_family_arm_m3_Hwi_ccr__C 
*          0    0000139c    00000004     
                  0000139c    00000004     main_pem3.oem3 (.const:ti_sysbios_family_arm_m3_Hwi_ccr__C)

.const:ti_sysbios_family_arm_m3_Hwi_excHandlerFunc__C 
*          0    000013a0    00000004     
                  000013a0    00000004     main_pem3.oem3 (.const:ti_sysbios_family_arm_m3_Hwi_excHandlerFunc__C)

.const:ti_sysbios_family_arm_m3_Hwi_nullIsrFunc__C 
*          0    000013a4    00000004     
                  000013a4    00000004     main_pem3.oem3 (.const:ti_sysbios_family_arm_m3_Hwi_nullIsrFunc__C)

.const:ti_sysbios_family_arm_m3_Hwi_numSparseInterrupts__C 
*          0    000013a8    00000004     
                  000013a8    00000004     main_pem3.oem3 (.const:ti_sysbios_family_arm_m3_Hwi_numSparseInterrupts__C)

.const:ti_sysbios_family_arm_m3_Hwi_priGroup__C 
*          0    000013ac    00000004     
                  000013ac    00000004     main_pem3.oem3 (.const:ti_sysbios_family_arm_m3_Hwi_priGroup__C)

.const:ti_sysbios_family_arm_m3_TaskSupport_stackAlignment__C 
*          0    000013b0    00000004     
                  000013b0    00000004     main_pem3.oem3 (.const:ti_sysbios_family_arm_m3_TaskSupport_stackAlignment__C)

.const:ti_sysbios_heaps_HeapMem_E_memory__C 
*          0    000013b4    00000004     
                  000013b4    00000004     main_pem3.oem3 (.const:ti_sysbios_heaps_HeapMem_E_memory__C)

.const:ti_sysbios_heaps_HeapMem_Module__gateObj__C 
*          0    000013b8    00000004     
                  000013b8    00000004     main_pem3.oem3 (.const:ti_sysbios_heaps_HeapMem_Module__gateObj__C)

.const:ti_sysbios_heaps_HeapMem_Object__count__C 
*          0    000013bc    00000004     
                  000013bc    00000004     main_pem3.oem3 (.const:ti_sysbios_heaps_HeapMem_Object__count__C)

.const:ti_sysbios_heaps_HeapMem_Object__table__C 
*          0    000013c0    00000004     
                  000013c0    00000004     main_pem3.oem3 (.const:ti_sysbios_heaps_HeapMem_Object__table__C)

.const:ti_sysbios_heaps_HeapMem_reqAlign__C 
*          0    000013c4    00000004     
                  000013c4    00000004     main_pem3.oem3 (.const:ti_sysbios_heaps_HeapMem_reqAlign__C)

.const:ti_sysbios_knl_Clock_serviceMargin__C 
*          0    000013c8    00000004     
                  000013c8    00000004     main_pem3.oem3 (.const:ti_sysbios_knl_Clock_serviceMargin__C)

.const:ti_sysbios_knl_Mailbox_Object__count__C 
*          0    000013cc    00000004     
                  000013cc    00000004     main_pem3.oem3 (.const:ti_sysbios_knl_Mailbox_Object__count__C)

.const:ti_sysbios_knl_Mailbox_Object__table__C 
*          0    000013d0    00000004     
                  000013d0    00000004     main_pem3.oem3 (.const:ti_sysbios_knl_Mailbox_Object__table__C)

.const:ti_sysbios_knl_Mailbox_maxTypeAlign__C 
*          0    000013d4    00000004     
                  000013d4    00000004     main_pem3.oem3 (.const:ti_sysbios_knl_Mailbox_maxTypeAlign__C)

.const:ti_sysbios_knl_Queue_Object__count__C 
*          0    000013d8    00000004     
                  000013d8    00000004     main_pem3.oem3 (.const:ti_sysbios_knl_Queue_Object__count__C)

.const:ti_sysbios_knl_Queue_Object__table__C 
*          0    000013dc    00000004     
                  000013dc    00000004     main_pem3.oem3 (.const:ti_sysbios_knl_Queue_Object__table__C)

.const:ti_sysbios_knl_Swi_Object__count__C 
*          0    000013e0    00000004     
                  000013e0    00000004     main_pem3.oem3 (.const:ti_sysbios_knl_Swi_Object__count__C)

.const:ti_sysbios_knl_Swi_Object__table__C 
*          0    000013e4    00000004     
                  000013e4    00000004     main_pem3.oem3 (.const:ti_sysbios_knl_Swi_Object__table__C)

.const:ti_sysbios_knl_Swi_numPriorities__C 
*          0    000013e8    00000004     
                  000013e8    00000004     main_pem3.oem3 (.const:ti_sysbios_knl_Swi_numPriorities__C)

.const:ti_sysbios_knl_Task_Object__count__C 
*          0    000013ec    00000004     
                  000013ec    00000004     main_pem3.oem3 (.const:ti_sysbios_knl_Task_Object__count__C)

.const:ti_sysbios_knl_Task_Object__table__C 
*          0    000013f0    00000004     
                  000013f0    00000004     main_pem3.oem3 (.const:ti_sysbios_knl_Task_Object__table__C)

.const:ti_sysbios_knl_Task_allBlockedFunc__C 
*          0    000013f4    00000004     
                  000013f4    00000004     main_pem3.oem3 (.const:ti_sysbios_knl_Task_allBlockedFunc__C)

.const:ti_sysbios_knl_Task_defaultStackHeap__C 
*          0    000013f8    00000004     
                  000013f8    00000004     main_pem3.oem3 (.const:ti_sysbios_knl_Task_defaultStackHeap__C)

.const:ti_sysbios_knl_Task_defaultStackSize__C 
*          0    000013fc    00000004     
                  000013fc    00000004     main_pem3.oem3 (.const:ti_sysbios_knl_Task_defaultStackSize__C)

.const:ti_sysbios_knl_Task_numConstructedTasks__C 
*          0    00001400    00000004     
                  00001400    00000004     main_pem3.oem3 (.const:ti_sysbios_knl_Task_numConstructedTasks__C)

.const:ti_sysbios_family_arm_cc26xx_Timer_Module__id__C 
*          0    00001406    00000002     
                  00001406    00000002     main_pem3.oem3 (.const:ti_sysbios_family_arm_cc26xx_Timer_Module__id__C)

.const:ti_sysbios_family_arm_cc26xx_TimestampProvider_useClockTimer__C 
*          0    00001408    00000002     
                  00001408    00000002     main_pem3.oem3 (.const:ti_sysbios_family_arm_cc26xx_TimestampProvider_useClockTimer__C)

.const:ti_sysbios_family_arm_m3_Hwi_Module__id__C 
*          0    0000140a    00000002     
                  0000140a    00000002     main_pem3.oem3 (.const:ti_sysbios_family_arm_m3_Hwi_Module__id__C)

.const:ti_sysbios_gates_GateHwi_Module__id__C 
*          0    0000140c    00000002     
                  0000140c    00000002     main_pem3.oem3 (.const:ti_sysbios_gates_GateHwi_Module__id__C)

.const:ti_sysbios_gates_GateMutex_Module__id__C 
*          0    0000140e    00000002     
                  0000140e    00000002     main_pem3.oem3 (.const:ti_sysbios_gates_GateMutex_Module__id__C)

.const:ti_sysbios_heaps_HeapMem_Module__id__C 
*          0    00001410    00000002     
                  00001410    00000002     main_pem3.oem3 (.const:ti_sysbios_heaps_HeapMem_Module__id__C)

.const:ti_sysbios_knl_Task_initStackFlag__C 
*          0    00001412    00000002     
                  00001412    00000002     main_pem3.oem3 (.const:ti_sysbios_knl_Task_initStackFlag__C)

.const:ti_sysbios_knl_Clock_tickMode__C 
*          0    00001414    00000001     
                  00001414    00000001     main_pem3.oem3 (.const:ti_sysbios_knl_Clock_tickMode__C)

.const:xdc_runtime_Startup_firstFxns__C 
*          0    00001418    00000008     
                  00001418    00000008     main_pem3.oem3 (.const:xdc_runtime_Startup_firstFxns__C)

.const:xdc_runtime_Startup_lastFxns__C 
*          0    00001420    00000008     
                  00001420    00000008     main_pem3.oem3 (.const:xdc_runtime_Startup_lastFxns__C)

.const:xdc_runtime_Assert_E_assertFailed__C 
*          0    00001428    00000004     
                  00001428    00000004     main_pem3.oem3 (.const:xdc_runtime_Assert_E_assertFailed__C)

.const:xdc_runtime_Error_E_memory__C 
*          0    0000142c    00000004     
                  0000142c    00000004     main_pem3.oem3 (.const:xdc_runtime_Error_E_memory__C)

.const:xdc_runtime_Error_policyFxn__C 
*          0    00001430    00000004     
                  00001430    00000004     main_pem3.oem3 (.const:xdc_runtime_Error_policyFxn__C)

.const:xdc_runtime_IGateProvider_Interface__BASE__C 
*          0    00001434    00000004     
                  00001434    00000004     main_pem3.oem3 (.const:xdc_runtime_IGateProvider_Interface__BASE__C)

.const:xdc_runtime_IHeap_Interface__BASE__C 
*          0    00001438    00000004     
                  00001438    00000004     main_pem3.oem3 (.const:xdc_runtime_IHeap_Interface__BASE__C)

.const:xdc_runtime_IModule_Interface__BASE__C 
*          0    0000143c    00000004     
                  0000143c    00000004     main_pem3.oem3 (.const:xdc_runtime_IModule_Interface__BASE__C)

.const:xdc_runtime_Main_Module__diagsEnabled__C 
*          0    00001440    00000004     
                  00001440    00000004     main_pem3.oem3 (.const:xdc_runtime_Main_Module__diagsEnabled__C)

.const:xdc_runtime_Main_Module__diagsIncluded__C 
*          0    00001444    00000004     
                  00001444    00000004     main_pem3.oem3 (.const:xdc_runtime_Main_Module__diagsIncluded__C)

.const:xdc_runtime_Main_Module__diagsMask__C 
*          0    00001448    00000004     
                  00001448    00000004     main_pem3.oem3 (.const:xdc_runtime_Main_Module__diagsMask__C)

.const:xdc_runtime_Memory_defaultHeapInstance__C 
*          0    0000144c    00000004     
                  0000144c    00000004     main_pem3.oem3 (.const:xdc_runtime_Memory_defaultHeapInstance__C)

.const:xdc_runtime_Startup_execImpl__C 
*          0    00001450    00000004     
                  00001450    00000004     main_pem3.oem3 (.const:xdc_runtime_Startup_execImpl__C)

.const:xdc_runtime_Startup_maxPasses__C 
*          0    00001454    00000004     
                  00001454    00000004     main_pem3.oem3 (.const:xdc_runtime_Startup_maxPasses__C)

.const:xdc_runtime_Startup_sfxnRts__C 
*          0    00001458    00000004     
                  00001458    00000004     main_pem3.oem3 (.const:xdc_runtime_Startup_sfxnRts__C)

.const:xdc_runtime_Startup_sfxnTab__C 
*          0    0000145c    00000004     
                  0000145c    00000004     main_pem3.oem3 (.const:xdc_runtime_Startup_sfxnTab__C)

.const:xdc_runtime_Startup_startModsFxn__C 
*          0    00001460    00000004     
                  00001460    00000004     main_pem3.oem3 (.const:xdc_runtime_Startup_startModsFxn__C)

.const:xdc_runtime_SysCallback_abortFxn__C 
*          0    00001464    00000004     
                  00001464    00000004     main_pem3.oem3 (.const:xdc_runtime_SysCallback_abortFxn__C)

.const:xdc_runtime_SysCallback_exitFxn__C 
*          0    00001468    00000004     
                  00001468    00000004     main_pem3.oem3 (.const:xdc_runtime_SysCallback_exitFxn__C)

.const:xdc_runtime_System_abortFxn__C 
*          0    0000146c    00000004     
                  0000146c    00000004     main_pem3.oem3 (.const:xdc_runtime_System_abortFxn__C)

.const:xdc_runtime_System_exitFxn__C 
*          0    00001470    00000004     
                  00001470    00000004     main_pem3.oem3 (.const:xdc_runtime_System_exitFxn__C)

.const:xdc_runtime_System_maxAtexitHandlers__C 
*          0    00001474    00000004     
                  00001474    00000004     main_pem3.oem3 (.const:xdc_runtime_System_maxAtexitHandlers__C)

.const:xdc_runtime_Text_charTab__C 
*          0    00001478    00000004     
                  00001478    00000004     main_pem3.oem3 (.const:xdc_runtime_Text_charTab__C)

.const:xdc_runtime_Text_nameEmpty__C 
*          0    0000147c    00000004     
                  0000147c    00000004     main_pem3.oem3 (.const:xdc_runtime_Text_nameEmpty__C)

.const:xdc_runtime_Text_nameStatic__C 
*          0    00001480    00000004     
                  00001480    00000004     main_pem3.oem3 (.const:xdc_runtime_Text_nameStatic__C)

.const:xdc_runtime_Text_nameUnknown__C 
*          0    00001484    00000004     
                  00001484    00000004     main_pem3.oem3 (.const:xdc_runtime_Text_nameUnknown__C)

.const:xdc_runtime_Main_Module__id__C 
*          0    00001488    00000002     
                  00001488    00000002     main_pem3.oem3 (.const:xdc_runtime_Main_Module__id__C)

.const:xdc_runtime_Memory_Module__id__C 
*          0    0000148a    00000002     
                  0000148a    00000002     main_pem3.oem3 (.const:xdc_runtime_Memory_Module__id__C)

.const:xdc_runtime_Text_charCnt__C 
*          0    0000148c    00000002     
                  0000148c    00000002     main_pem3.oem3 (.const:xdc_runtime_Text_charCnt__C)

.const:xdc_runtime_Text_isLoaded__C 
*          0    0000148e    00000002     
                  0000148e    00000002     main_pem3.oem3 (.const:xdc_runtime_Text_isLoaded__C)

.const:ti_sysbios_rom_ROM_AONRTCChannelEnable 
*          0    00001494    00000004     
                  00001494    00000004     main_pem3.oem3 (.const:ti_sysbios_rom_ROM_AONRTCChannelEnable)

.const:ti_sysbios_rom_ROM_AONRTCCompareValueSet 
*          0    00001498    00000004     
                  00001498    00000004     main_pem3.oem3 (.const:ti_sysbios_rom_ROM_AONRTCCompareValueSet)

.const:ti_sysbios_rom_ROM_AONRTCCurrentCompareValueGet 
*          0    0000149c    00000004     
                  0000149c    00000004     main_pem3.oem3 (.const:ti_sysbios_rom_ROM_AONRTCCurrentCompareValueGet)

.const:ti_sysbios_rom_ROM_AONRTCEventClear 
*          0    000014a0    00000004     
                  000014a0    00000004     main_pem3.oem3 (.const:ti_sysbios_rom_ROM_AONRTCEventClear)

.const:ti_sysbios_rom_ROM_ti_sysbios_family_arm_cc26xx_Timer_getCount64__E 
*          0    000014a4    00000004     
                  000014a4    00000004     main_pem3.oem3 (.const:ti_sysbios_rom_ROM_ti_sysbios_family_arm_cc26xx_Timer_getCount64__E)

.const:ti_sysbios_rom_ROM_ti_sysbios_family_arm_cc26xx_Timer_getCurrentTick__E 
*          0    000014a8    00000004     
                  000014a8    00000004     main_pem3.oem3 (.const:ti_sysbios_rom_ROM_ti_sysbios_family_arm_cc26xx_Timer_getCurrentTick__E)

.const:ti_sysbios_rom_ROM_ti_sysbios_family_arm_cc26xx_Timer_getMaxTicks__E 
*          0    000014ac    00000004     
                  000014ac    00000004     main_pem3.oem3 (.const:ti_sysbios_rom_ROM_ti_sysbios_family_arm_cc26xx_Timer_getMaxTicks__E)

.const:ti_sysbios_rom_ROM_ti_sysbios_family_arm_cc26xx_Timer_setNextTick__E 
*          0    000014b4    00000004     
                  000014b4    00000004     main_pem3.oem3 (.const:ti_sysbios_rom_ROM_ti_sysbios_family_arm_cc26xx_Timer_setNextTick__E)

.const:ti_sysbios_rom_ROM_ti_sysbios_family_arm_cc26xx_Timer_setThreshold__I 
*          0    000014b8    00000004     
                  000014b8    00000004     main_pem3.oem3 (.const:ti_sysbios_rom_ROM_ti_sysbios_family_arm_cc26xx_Timer_setThreshold__I)

.const:ti_sysbios_rom_ROM_ti_sysbios_family_arm_cc26xx_Timer_start__E 
*          0    000014bc    00000004     
                  000014bc    00000004     main_pem3.oem3 (.const:ti_sysbios_rom_ROM_ti_sysbios_family_arm_cc26xx_Timer_start__E)

.const:ti_sysbios_rom_ROM_ti_sysbios_family_arm_cc26xx_TimestampProvider_get32__E 
*          0    000014c0    00000004     
                  000014c0    00000004     main_pem3.oem3 (.const:ti_sysbios_rom_ROM_ti_sysbios_family_arm_cc26xx_TimestampProvider_get32__E)

.const:ti_sysbios_rom_ROM_xdc_runtime_Startup_getState__I 
*          0    000014c4    00000004     
                  000014c4    00000004     main_pem3.oem3 (.const:ti_sysbios_rom_ROM_xdc_runtime_Startup_getState__I)

.const:ti_sysbios_rom_ROM_xdc_runtime_System_SupportProxy_abort__E 
*          0    000014c8    00000004     
                  000014c8    00000004     main_pem3.oem3 (.const:ti_sysbios_rom_ROM_xdc_runtime_System_SupportProxy_abort__E)

.const:ti_sysbios_rom_ROM_xdc_runtime_System_SupportProxy_exit__E 
*          0    000014cc    00000004     
                  000014cc    00000004     main_pem3.oem3 (.const:ti_sysbios_rom_ROM_xdc_runtime_System_SupportProxy_exit__E)

.const:ti_sysbios_knl_Clock_Module_State_clockQ__O 
*          0    000014d4    00000004     
                  000014d4    00000004     main_pem3.oem3 (.const:ti_sysbios_knl_Clock_Module_State_clockQ__O)

.const:ti_sysbios_knl_Mailbox_Instance_State_dataSem__O 
*          0    000014dc    00000004     
                  000014dc    00000004     main_pem3.oem3 (.const:ti_sysbios_knl_Mailbox_Instance_State_dataSem__O)

.const:ti_sysbios_knl_Mailbox_Instance_State_freeQue__O 
*          0    000014e0    00000004     
                  000014e0    00000004     main_pem3.oem3 (.const:ti_sysbios_knl_Mailbox_Instance_State_freeQue__O)

.const:ti_sysbios_knl_Mailbox_Instance_State_freeSem__O 
*          0    000014e4    00000004     
                  000014e4    00000004     main_pem3.oem3 (.const:ti_sysbios_knl_Mailbox_Instance_State_freeSem__O)

.const:ti_sysbios_knl_Semaphore_Instance_State_pendQ__O 
*          0    000014e8    00000004     
                  000014e8    00000004     main_pem3.oem3 (.const:ti_sysbios_knl_Semaphore_Instance_State_pendQ__O)

.data:ti_sysbios_knl_Task_Module__state__V 
*          0    20000100    00000044     UNINITIALIZED
                  20000100    00000044     main_pem3.oem3 (.data:ti_sysbios_knl_Task_Module__state__V)

.data:ti_sysbios_family_arm_m3_Hwi_Module__state__V 
*          0    20000144    00000034     UNINITIALIZED
                  20000144    00000034     main_pem3.oem3 (.data:ti_sysbios_family_arm_m3_Hwi_Module__state__V)

.data:ti_sysbios_BIOS_Module__state__V 
*          0    200001a4    00000024     UNINITIALIZED
                  200001a4    00000024     main_pem3.oem3 (.data:ti_sysbios_BIOS_Module__state__V)

.data:ti_sysbios_knl_Swi_Module__state__V 
*          0    200001c8    0000001c     UNINITIALIZED
                  200001c8    0000001c     main_pem3.oem3 (.data:ti_sysbios_knl_Swi_Module__state__V)

.data:ti_sysbios_family_arm_cc26xx_Timer_Module__state__V 
*          0    200001e4    00000008     UNINITIALIZED
                  200001e4    00000008     main_pem3.oem3 (.data:ti_sysbios_family_arm_cc26xx_Timer_Module__state__V)

.data:xdc_runtime_System_Module__state__V 
*          0    200001f8    00000008     UNINITIALIZED
                  200001f8    00000008     main_pem3.oem3 (.data:xdc_runtime_System_Module__state__V)

.bss       0    20000208    000020bb     UNINITIALIZED
                  20000208    00000400     NodeRadioTask.obj (.bss:nodeRadioTaskStack)
                  20000608    00000400     NodeTask.obj (.bss:nodeTaskStack)
                  20000a08    00000400     (.common:sensorTaskStack)
                  20000e08    00000400     (.common:ti_sysbios_heaps_HeapMem_Instance_State_0_buf__A)
                  20001208    00000200     main_pem3.oem3 (.bss:taskStackSection)
                  20001408    00000120     rtsv7M3_T_le_eabi.lib : trgmsg.c.obj (.bss:_CIOBUF_)
                  20001528    00000120     (.common:gptimerCC26XXObjects)
                  20001648    00000100     rf_singleMode_cc13xxware.aem3 : RFCC26XX_singleMode.oem3 (.bss:aCmdPool)
                  20001748    000000e0     (.common:i2cCC26xxObjects)
                  20001828    000000c8     (.common:ti_sysbios_family_arm_m3_Hwi_dispatchTable)
                  200018f0    000000c0     EasyLink.obj (.bss:rfObject)
                  200019b0    0000009c     NodeRadioTask.obj (.bss:currentRadioOperation)
                  20001a4c    00000098     EasyLink.obj (.bss:rxBuffer)
                  20001ae4    00000098     EasyLink.obj (.bss:rxPacket$1)
                  20001b7c    0000008c     EasyLink.obj (.bss:txBuffer)
                  20001c08    00000080     (.common:xdc_runtime_SysMin_Module_State_0_outbuf__A)
                  20001c88    0000007c     drivers_cc13xxware.aem3 : PINCC26XX.oem3 (.bss:PIN_HandleTable)
                  20001d04    00000050     (.common:nodeRadioTask)
                  20001d54    00000050     (.common:nodeTask)
                  20001da4    00000050     (.common:sensorTaskStruct)
                  20001df4    0000003c     NodeRadioTask.obj (.bss:nodeRadioTaskParams)
                  20001e30    0000003c     NodeTask.obj (.bss:nodeTaskParams)
                  20001e6c    00000034     drivers_cc13xxware.aem3 : PINCC26XX.oem3 (.bss:PinSwi)
                  20001ea0    00000034     rf_singleMode_cc13xxware.aem3 : RFCC26XX_singleMode.oem3 (.bss:swiFsm)
                  20001ed4    00000034                                   : RFCC26XX_singleMode.oem3 (.bss:swiHw)
                  20001f08    00000030     EasyLink.obj (.bss:EasyLink_cmdPropRxAdv)
                  20001f38    00000028     EasyLink.obj (.bss:EasyLink_cmdPropRadioSetup)
                  20001f60    00000024     rf_singleMode_cc13xxware.aem3 : RFCC26XX_singleMode.oem3 (.bss:clkPowerUp)
                  20001f84    00000024     scif_framework.obj (.bss:scifData)
                  20001fa8    00000024     (.common:fastReportTimeoutClock)
                  20001fcc    00000020     (.common:PinGpioConfigTable)
                  20001fec    0000001c     scif_framework.obj (.bss:hwiCtrlReady)
                  20002008    0000001c     scif_framework.obj (.bss:hwiTaskAlert)
                  20002024    0000001c     scif_framework.obj (.bss:semCtrlReady)
                  20002040    0000001c     (.common:PinHwi)
                  2000205c    0000001c     (.common:PinSem)
                  20002078    0000001c     (.common:hwiCpe0)
                  20002094    0000001c     (.common:hwiHw)
                  200020b0    0000001c     (.common:i2cTransaction)
                  200020cc    0000001c     (.common:radioAccessSem)
                  200020e8    0000001c     (.common:radioResultSem)
                  20002104    00000018     EasyLink.obj (.bss:EasyLink_cmdFs)
                  2000211c    00000018     EasyLink.obj (.bss:EasyLink_cmdPropTx)
                  20002134    00000018     (.common:cmdDirImm)
                  2000214c    00000014     NodeRadioTask.obj (.bss)
                  20002160    00000014     NodeTask.obj (.bss)
                  20002174    00000014     driverlib.lib : osc.obj (.bss:oscHfGlobals)
                  20002188    00000014     EasyLink.obj (.bss:rfParams)
                  2000219c    00000014     (.common:cmdQ)
                  200021b0    00000014     (.common:nodeEvent)
                  200021c4    00000014     (.common:opRatSync)
                  200021d8    00000014     (.common:radioOperationEvent)
                  200021ec    00000010     EasyLink.obj (.bss)
                  200021fc    00000010     EasyLink.obj (.bss:EasyLink_RF_prop)
                  2000220c    00000010     NodeRadioTask.obj (.bss:dmSensorPacket)
                  2000221c    00000010     (.common:i2cParams)
                  2000222c    0000000c     NodeTask.obj (.bss:buttonPinState)
                  20002238    0000000c     NodeTask.obj (.bss:ledPinState)
                  20002244    0000000c     Sensor.obj (.bss:outputPinState)
                  20002250    0000000c     EasyLink.obj (.bss:rxStatistics)
                  2000225c    0000000c     Sensor.obj (.bss:timerPinState)
                  20002268    00000008     Sensor.obj (.bss)
                  20002270    00000008     EasyLink.obj (.bss:dataQueue)
                  20002278    00000008     driverlib.lib : sys_ctrl.obj (.bss:powerQualGlobals)
                  20002280    00000008     (.common:parmbuf)
                  20002288    00000004     SceAdc.obj (.bss)
                  2000228c    00000004     (.common:PIN_NumPins)
                  20002290    00000004     (.common:activeTimeInUs)
                  20002294    00000004     (.common:dispatchInUs)
                  20002298    00000004     (.common:hTimer)
                  2000229c    00000004     (.common:i2c)
                  200022a0    00000004     (.common:nRtc1)
                  200022a4    00000004     (.common:nRtc3)
                  200022a8    00000004     (.common:pCurrClient)
                  200022ac    00000004     (.common:pFsmState)
                  200022b0    00000004     (.common:pPinGpio)
                  200022b4    00000004     (.common:timerPinHandle)
                  200022b8    00000001     (.common:bInitAvailRatCh)
                  200022b9    00000001     (.common:bPowerDownActive)
                  200022ba    00000001     (.common:bPowerUpActive)
                  200022bb    00000001     (.common:bRadioActive)
                  200022bc    00000001     (.common:bRestart)
                  200022bd    00000001     (.common:bStart)
                  200022be    00000001     (.common:bYieldPwrDnCalled)
                  200022bf    00000001     (.common:bYieldPwrDnCancel)
                  200022c0    00000001     (.common:driverlib_release_0_47020)
                  200022c1    00000001     (.common:nActiveClients)
                  200022c2    00000001     (.common:nClients)

.data      0    200022c8    000008db     UNINITIALIZED
                  200022c8    00000110     drivers_cc13xxware.aem3 : PowerCC26XX.oem3 (.data:PowerCC26XX_module)
                  200023d8    000000f0     Sensor.obj (.data:sensordata)
                  200024c8    00000060     smartrf_settings_predefined.obj (.data:pOverrides_hsm)
                  20002528    0000005c     smartrf_settings_predefined.obj (.data:pOverrides_lrm)
                  20002584    0000005c     smartrf_settings_predefined.obj (.data:pOverrides_ook)
                  200025e0    00000058     smartrf_settings.obj (.data:pOverrides)
                  20002638    00000058     smartrf_settings_predefined.obj (.data:pOverrides_fsk)
                  20002690    0000004c     main_pem3.oem3 (.data:ti_sysbios_knl_Task_Object__table__V)
                  200026dc    00000004     drivers_cc13xxware.aem3 : I2C.oem3 (.data)
                  200026e0    00000048     main_pem3.oem3 (.data:ti_sysbios_family_arm_cc26xx_Timer_Object__table__V)
                  20002728    0000003c     smartrf_settings_predefined.obj (.data)
                  20002764    00000038     main_pem3.oem3 (.data:ti_sysbios_gates_GateMutex_Object__table__V)
                  2000279c    00000030     smartrf_settings_predefined.obj (.data:RF_cmdPropRxAdv_preDef)
                  200027cc    00000030     main_pem3.oem3 (.data:ti_sysbios_knl_Swi_Module_State_0_readyQ__A)
                  200027fc    00000030     main_pem3.oem3 (.data:ti_sysbios_knl_Swi_Object__table__V)
                  2000282c    00000028     smartrf_settings.obj (.data:RF_cmdPropRadioDivSetup)
                  20002854    00000028     smartrf_settings_predefined.obj (.data:RF_cmdPropRadioDivSetup_fsk)
                  2000287c    00000028     smartrf_settings_predefined.obj (.data:RF_cmdPropRadioDivSetup_lrm)
                  200028a4    00000028     smartrf_settings_predefined.obj (.data:RF_cmdPropRadioDivSetup_ook)
                  200028cc    00000024     smartrf_settings_predefined.obj (.data:RF_cmdRxHS)
                  200028f0    00000020     Sensor.obj (.data:intervalBuf)
                  20002910    00000020     main_pem3.oem3 (.data:ti_sysbios_knl_Clock_Object__table__V)
                  20002930    00000020     main_pem3.oem3 (.data:ti_sysbios_knl_Task_Module_State_0_readyQ__A)
                  20002950    00000020     Sensor.obj (.data:timerBuf)
                  20002970    0000001c     EasyLink.obj (.data:txTestCmd$2)
                  2000298c    00000018     smartrf_settings.obj (.data:RF_cmdFs)
                  200029a4    00000018     smartrf_settings_predefined.obj (.data:RF_cmdFs_preDef)
                  200029bc    00000018     smartrf_settings.obj (.data:RF_cmdPropTx)
                  200029d4    00000018     smartrf_settings_predefined.obj (.data:RF_cmdPropTx_preDef)
                  200029ec    00000018     smartrf_settings_predefined.obj (.data:RF_cmdRadioSetup_hsm)
                  20002a04    00000018     EasyLink.obj (.data:addrFilterTable)
                  20002a1c    00000018     smartrf_settings_predefined.obj (.data:shapeovr)
                  20002a34    00000018     main_pem3.oem3 (.data:ti_sysbios_family_arm_m3_Hwi_Object__table__V)
                  20002a4c    00000018     main_pem3.oem3 (.data:ti_sysbios_heaps_HeapMem_Object__table__V)
                  20002a64    00000014     smartrf_settings_predefined.obj (.data:RF_cmdTxHS)
                  20002a78    00000010     smartrf_settings.obj (.data:RF_prop)
                  20002a88    00000010     smartrf_settings_predefined.obj (.data:RF_prop_fsk)
                  20002a98    00000010     smartrf_settings_predefined.obj (.data:RF_prop_hsm)
                  20002aa8    00000010     smartrf_settings_predefined.obj (.data:RF_prop_lrm)
                  20002ab8    00000010     smartrf_settings_predefined.obj (.data:RF_prop_ook)
                  20002ac8    0000000e     EasyLink.obj (.data)
                  20002ad6    00000002     rf_singleMode_cc13xxware.aem3 : RFCC26XX_singleMode.oem3 (.data)
                  20002ad8    0000000c     scif_framework.obj (.data)
                  20002ae4    0000000c     main_pem3.oem3 (.data:xdc_runtime_SysMin_Module__state__V)
                  20002af0    00000008     rtsv7M3_T_le_eabi.lib : _lock.c.obj (.data:$O1$$)
                  20002af8    00000008     Sensor.obj (.data)
                  20002b00    00000008     NodeTask.obj (.data:buttonPinTable)
                  20002b08    00000008     Sensor.obj (.data:gptPinTable)
                  20002b10    00000008     Sensor.obj (.data:outputPinTable)
                  20002b18    00000008     NodeTask.obj (.data:pinTable)
                  20002b20    00000008     main_pem3.oem3 (.data:ti_sysbios_family_arm_m3_Hwi_Module__root__V)
                  20002b28    00000008     main_pem3.oem3 (.data:ti_sysbios_gates_GateHwi_Module__root__V)
                  20002b30    00000008     main_pem3.oem3 (.data:ti_sysbios_gates_GateMutex_Module__root__V)
                  20002b38    00000008     main_pem3.oem3 (.data:ti_sysbios_hal_Hwi_Module__root__V)
                  20002b40    00000008     main_pem3.oem3 (.data:ti_sysbios_heaps_HeapMem_Module__root__V)
                  20002b48    00000008     main_pem3.oem3 (.data:ti_sysbios_knl_Clock_Module__root__V)
                  20002b50    00000008     main_pem3.oem3 (.data:ti_sysbios_knl_Event_Module__root__V)
                  20002b58    00000008     main_pem3.oem3 (.data:ti_sysbios_knl_Mailbox_Module__root__V)
                  20002b60    00000008     main_pem3.oem3 (.data:ti_sysbios_knl_Queue_Module__root__V)
                  20002b68    00000008     main_pem3.oem3 (.data:ti_sysbios_knl_Semaphore_Module__root__V)
                  20002b70    00000008     main_pem3.oem3 (.data:ti_sysbios_knl_Swi_Module__root__V)
                  20002b78    00000008     main_pem3.oem3 (.data:ti_sysbios_knl_Task_Module__root__V)
                  20002b80    00000008     main_pem3.oem3 (.data:xdc_runtime_Registry_Module__state__V)
                  20002b88    00000008     main_pem3.oem3 (.data:xdc_runtime_System_Module_State_0_atexitHandlers__A)
                  20002b90    00000004     rtsv7M3_T_le_eabi.lib : stkdepth_vars.c.obj (.data)
                  20002b94    00000004     main_pem3.oem3 (.data:ti_sysbios_family_arm_m3_Hwi_Module_State_0_excContext__A)
                  20002b98    00000004     main_pem3.oem3 (.data:ti_sysbios_family_arm_m3_Hwi_Module_State_0_excStack__A)
                  20002b9c    00000004     main_pem3.oem3 (.data:ti_sysbios_knl_Task_Module_State_0_idleTask__A)
                  20002ba0    00000002     main_pem3.oem3 (.data:ti_sysbios_family_arm_m3_Hwi_Module_State_0_excActive__A)
                  20002ba2    00000001     NodeRadioTask.obj (.data)

.stack     0    20004d00    00000300     UNINITIALIZED
                  20004d00    00000300     --HOLE--

.const:xdc_runtime_Error_policy__C 
*          0    00001490    00000001     
                  00001490    00000001     main_pem3.oem3 (.const:xdc_runtime_Error_policy__C)

.const:ti_sysbios_rom_ROM_ti_sysbios_family_arm_cc26xx_Timer_initDevice__I 
*          0    000014b0    00000004     
                  000014b0    00000004     main_pem3.oem3 (.const:ti_sysbios_rom_ROM_ti_sysbios_family_arm_cc26xx_Timer_initDevice__I)

.const:ti_sysbios_gates_GateMutex_Instance_State_sem__O 
*          0    000014d0    00000004     
                  000014d0    00000004     main_pem3.oem3 (.const:ti_sysbios_gates_GateMutex_Instance_State_sem__O)

.const:ti_sysbios_knl_Mailbox_Instance_State_dataQue__O 
*          0    000014d8    00000004     
                  000014d8    00000004     main_pem3.oem3 (.const:ti_sysbios_knl_Mailbox_Instance_State_dataQue__O)

.const:ti_sysbios_knl_Task_Module_State_inactiveQ__O 
*          0    000014ec    00000004     
                  000014ec    00000004     main_pem3.oem3 (.const:ti_sysbios_knl_Task_Module_State_inactiveQ__O)

.data:ti_sysbios_knl_Clock_Module__state__V 
*          0    20000178    0000002c     UNINITIALIZED
                  20000178    0000002c     main_pem3.oem3 (.data:ti_sysbios_knl_Clock_Module__state__V)

.data:ti_sysbios_family_arm_cc26xx_TimestampProvider_Module__state__V 
*          0    200001ec    00000004     UNINITIALIZED
                  200001ec    00000004     main_pem3.oem3 (.data:ti_sysbios_family_arm_cc26xx_TimestampProvider_Module__state__V)

.data:xdc_runtime_Startup_Module__state__V 
*          0    200001f0    00000008     UNINITIALIZED
                  200001f0    00000008     main_pem3.oem3 (.data:xdc_runtime_Startup_Module__state__V)

.data:xdc_runtime_Memory_Module__state__V 
*          0    20000200    00000004     UNINITIALIZED
                  20000200    00000004     main_pem3.oem3 (.data:xdc_runtime_Memory_Module__state__V)

.bootVecs 
*          0    00000000    00000008     DSECT
                  00000000    00000008     boot.aem3 : boot.oem3 (.bootVecs)

.resetVecs 
*          0    00000000    0000003c     
                  00000000    0000003c     main_pem3.oem3 (.resetVecs)

.vecs      0    20000000    000000c8     NOLOAD SECTION
                  20000000    000000c8     main_pem3.oem3 (.vecs)

xdc.meta   0    00000000    000000e2     COPY SECTION
                  00000000    000000e2     main_pem3.oem3 (xdc.meta)

xdc.noload 
*          0    00000000    00000000     COPY SECTION

.binit     0    00000000    00000000     

MODULE SUMMARY

       Module                            code    ro data   rw data
       ------                            ----    -------   -------
    .\
       Sensor.obj                        1546    3         1520   
       NodeRadioTask.obj                 1306    0         1433   
       NodeTask.obj                      684     0         1280   
       Plantsensor.obj                   0       284       512    
       SceAdc.obj                        204     0         4      
       ccfg.obj                          0       88        0      
       main.obj                          68      0         0      
    +--+---------------------------------+-------+---------+---------+
       Total:                            3808    375       4749   
                                                                  
    .\easylink\
       EasyLink.obj                      2742    0         910    
    +--+---------------------------------+-------+---------+---------+
       Total:                            2742    0         910    
                                                                  
    .\sce\
       scif_framework.obj                1462    0         132    
       scif.obj                          164     498       0      
    +--+---------------------------------+-------+---------+---------+
       Total:                            1626    498       132    
                                                                  
    .\smartrf_settings\
       smartrf_settings_predefined.obj   2074    11232     812    
       smartrf_settings.obj              442     2368      192    
    +--+---------------------------------+-------+---------+---------+
       Total:                            2516    13600     1004   
                                                                  
    C:\Users\admin\workspace_v9\Plantsensor\Debug\configPkg\package\cfg\
       main_pem3.oem3                    728     1551      2874   
    +--+---------------------------------+-------+---------+---------+
       Total:                            728     1551      2874   
                                                                  
    C:/ti/tirtos_cc13xx_cc26xx_2_21_00_06/products/cc13xxware_2_04_03_17272/driverlib/bin/ccs/driverlib.lib
       setup_rom.obj                     1472    0         0      
       sys_ctrl.obj                      748     0         8      
       rfc.obj                           592     0         0      
       osc.obj                           376     0         20     
       setup.obj                         360     0         0      
       chipinfo.obj                      278     0         0      
       aon_rtc.obj                       44      0         0      
       ddi.obj                           44      0         0      
       adi.obj                           40      0         0      
       aon_batmon.obj                    40      0         0      
       cpu.obj                           30      0         0      
       vims.obj                          14      0         0      
       driverlib_release.obj             0       0         1      
    +--+---------------------------------+-------+---------+---------+
       Total:                            4038    0         29     
                                                                  
    C:/ti/tirtos_cc13xx_cc26xx_2_21_00_06/products/tidrivers_cc13xx_cc26xx_2_21_00_04/packages/ti/drivers/lib/drivers_cc13xxware.aem3
       PowerCC26XX.oem3                  2096    76        272    
       PINCC26XX.oem3                    1318    0         272    
       PowerCC26XX_calibrateRCOSC.oem3   1476    0         0      
       I2CCC26XX.oem3                    1358    32        0      
       GPTimerCC26XX.oem3                800     34        0      
       I2C.oem3                          130     16        4      
       List.oem3                         82      0         0      
    +--+---------------------------------+-------+---------+---------+
       Total:                            7260    158       548    
                                                                  
    C:/ti/tirtos_cc13xx_cc26xx_2_21_00_06/products/tidrivers_cc13xx_cc26xx_2_21_00_04/packages/ti/drivers/lib/power_cc13xx_tirtos.aem3
       PowerCC26XX_tirtos.oem3           212     0         0      
    +--+---------------------------------+-------+---------+---------+
       Total:                            212     0         0      
                                                                  
    C:/ti/tirtos_cc13xx_cc26xx_2_21_00_06/products/tidrivers_cc13xx_cc26xx_2_21_00_04/packages/ti/drivers/ports/lib/tirtosport.aem3
       HwiP_tirtos.oem3                  4       0         0      
    +--+---------------------------------+-------+---------+---------+
       Total:                            4       0         0      
                                                                  
    C:/ti/tirtos_cc13xx_cc26xx_2_21_00_06/products/tidrivers_cc13xx_cc26xx_2_21_00_04/packages/ti/drivers/rf/lib/rf_singleMode_cc13xxware.aem3
       RFCC26XX_singleMode.oem3          4610    20        552    
    +--+---------------------------------+-------+---------+---------+
       Total:                            4610    20        552    
                                                                  
    C:\Users\admin\workspace_v9\Plantsensor\src\sysbios\rom_sysbios.aem3
       rom_sysbios.obj                   3009    0         0      
       rom_sysbios_config.obj            26      0         0      
    +--+---------------------------------+-------+---------+---------+
       Total:                            3035    0         0      
                                                                  
    C:\ti\ccs910\ccs\tools\compiler\ti-cgt-arm_18.12.2.LTS\lib\rtsv7M3_T_le_eabi.lib
       trgmsg.c.obj                      108     0         288    
       fd_div_t2.asm.obj                 310     0         0      
       memcpy_t2.asm.obj                 156     0         0      
       ull_div_t2.asm.obj                150     0         0      
       memset_t2.asm.obj                 122     0         0      
       copy_decompress_lzss.c.obj        104     0         0      
       hostwrite.c.obj                   88      0         0      
       cpy_tbl.c.obj                     76      0         0      
       fd_tou_t2.asm.obj                 68      0         0      
       u_divt2.asm.obj                   64      0         0      
       _lock.c.obj                       26      0         8      
       u_tofd_t2.asm.obj                 32      0         0      
       args_main.c.obj                   24      0         0      
       ll_mul_t2.asm.obj                 24      0         0      
       strlen.c.obj                      20      0         0      
       copy_decompress_none.c.obj        14      0         0      
       copy_zero_init.c.obj              12      0         0      
       hostopen.c.obj                    0       0         8      
       stkdepth_vars.c.obj               0       0         4      
       div0.asm.obj                      2       0         0      
    +--+---------------------------------+-------+---------+---------+
       Total:                            1400    0         308    
                                                                  
    C:\ti\tirtos_cc13xx_cc26xx_2_21_00_06\products\bios_6_46_01_37\packages\ti\targets\arm\rtsarm\lib\auto_init.aem3
       auto_init.oem3                    160     0         0      
    +--+---------------------------------+-------+---------+---------+
       Total:                            160     0         0      
                                                                  
    C:\ti\tirtos_cc13xx_cc26xx_2_21_00_06\products\bios_6_46_01_37\packages\ti\targets\arm\rtsarm\lib\boot.aem3
       boot.oem3                         68      0         0      
    +--+---------------------------------+-------+---------+---------+
       Total:                            68      0         0      
                                                                  
       Stack:                            0       0         768    
       Linker Generated:                 512     1060      0      
    +--+---------------------------------+-------+---------+---------+
       Grand Total:                      32719   17262     11874  


LINKER GENERATED COPY TABLES

__TI_cinit_table @ 00000408 records: 12, size/record: 8, table size: 96
	.data: load addr=00000040, load size=000002ee bytes, run addr=200022c8, run size=000008db bytes, compression=lzss
	.data:ti_sysbios_family_arm_m3_Hwi_Module__state__V: load addr=0000032e, load size=00000028 bytes, run addr=20000144, run size=00000034 bytes, compression=lzss
	.data:ti_sysbios_knl_Task_Module__state__V: load addr=00000356, load size=00000021 bytes, run addr=20000100, run size=00000044 bytes, compression=lzss
	.data:ti_sysbios_BIOS_Module__state__V: load addr=00000377, load size=0000001f bytes, run addr=200001a4, run size=00000024 bytes, compression=lzss
	.data:ti_sysbios_knl_Clock_Module__state__V: load addr=00000396, load size=0000001e bytes, run addr=20000178, run size=0000002c bytes, compression=lzss
	.data:ti_sysbios_knl_Swi_Module__state__V: load addr=000003b4, load size=00000010 bytes, run addr=200001c8, run size=0000001c bytes, compression=lzss
	.data:ti_sysbios_family_arm_cc26xx_Timer_Module__state__V: load addr=000003d0, load size=0000000b bytes, run addr=200001e4, run size=00000008 bytes, compression=lzss
	.data:xdc_runtime_System_Module__state__V: load addr=000003db, load size=0000000b bytes, run addr=200001f8, run size=00000008 bytes, compression=lzss
	.bss: load addr=000003e8, load size=00000008 bytes, run addr=20000208, run size=000020bb bytes, compression=zero_init
	.data:xdc_runtime_Memory_Module__state__V: load addr=000003f0, load size=00000008 bytes, run addr=20000200, run size=00000004 bytes, compression=lzss
	.data:ti_sysbios_family_arm_cc26xx_TimestampProvider_Module__state__V: load addr=000003f8, load size=00000007 bytes, run addr=200001ec, run size=00000004 bytes, compression=lzss
	.data:xdc_runtime_Startup_Module__state__V: load addr=000003ff, load size=00000007 bytes, run addr=200001f0, run size=00000008 bytes, compression=lzss


LINKER GENERATED HANDLER TABLE

__TI_handler_table @ 000003c4 records: 3, size/record: 4, table size: 12
	index: 0, handler: __TI_decompress_lzss
	index: 1, handler: __TI_decompress_none
	index: 2, handler: __TI_zero_init


FAR CALL TRAMPOLINES

callee name               trampoline name
   callee addr  tramp addr   call addr  call info
--------------  -----------  ---------  ----------------
xdc_runtime_Core_assignParams__I  $Tramp$TT$L$PI$$xdc_runtime_Core_assignParams__I
   1001c5ed     000092c4     00009188   main_pem3.oem3 (.text:ti_sysbios_knl_Event_Params__init__S)
xdc_runtime_Startup_startMods__I  $Tramp$TT$L$PI$$xdc_runtime_Startup_startMods__I
   1001c309     000092cc     00008f6c   main_pem3.oem3 (.text:xdc_runtime_Startup_exec__I)
ti_sysbios_knl_Queue_construct  $Tramp$TT$L$PI$$ti_sysbios_knl_Queue_construct
   1001b8f1     000092d4     00008f00   rom_sysbios.aem3 : rom_sysbios.obj (.text:ti_sysbios_knl_Event_Instance_init__E)
ti_sysbios_knl_Clock_logTick__E  $Tramp$TT$L$PI$$ti_sysbios_knl_Clock_logTick__E
   1001be63     000092dc     00008ee2   main_pem3.oem3 (.text:ti_sysbios_knl_Clock_doTick__I)
ti_sysbios_knl_Task_Params__init__S  $Tramp$TT$L$PI$$ti_sysbios_knl_Task_Params__init__S
   1001c1d5     000092e4     00008de4   NodeRadioTask.obj (.text:ti_sysbios_knl_Task_Params_init)
                             00008dfa   NodeTask.obj (.text:ti_sysbios_knl_Task_Params_init)
                             00008e10   Sensor.obj (.text:ti_sysbios_knl_Task_Params_init)
ti_sysbios_BIOS_RtsGateProxy_leave__E  $Tramp$TT$L$PI$$ti_sysbios_BIOS_RtsGateProxy_leave__E
   1001c249     000092ec     00008d02   main_pem3.oem3 (.text:ti_sysbios_BIOS_rtsUnlock__I)
ti_sysbios_BIOS_RtsGateProxy_enter__E  $Tramp$TT$L$PI$$ti_sysbios_BIOS_RtsGateProxy_enter__E
   1001c245     000092f4     0000891e   main_pem3.oem3 (.text:ti_sysbios_BIOS_rtsLock__I)
xdc_runtime_Core_constructObject__I  $Tramp$TT$L$PI$$xdc_runtime_Core_constructObject__I
   1001c635     000092fc     000084bc   main_pem3.oem3 (.text:ti_sysbios_knl_Event_construct)
ti_sysbios_knl_Task_startup__E  $Tramp$TT$L$PI$$ti_sysbios_knl_Task_startup__E
   1001c305     00009304     0000827c   main_pem3.oem3 (.text:ti_sysbios_BIOS_startFunc__I)
ti_sysbios_knl_Swi_startup__E  $Tramp$TT$L$PI$$ti_sysbios_knl_Swi_startup__E
   1001c239     0000930c     00008278   main_pem3.oem3 (.text:ti_sysbios_BIOS_startFunc__I)
ti_sysbios_hal_Hwi_startup__E  $Tramp$TT$L$PI$$ti_sysbios_hal_Hwi_startup__E
   1001c289     00009314     00008274   main_pem3.oem3 (.text:ti_sysbios_BIOS_startFunc__I)
ti_sysbios_family_arm_cc26xx_Timer_startup__E  $Tramp$TT$L$PI$$ti_sysbios_family_arm_cc26xx_Timer_startup__E
   1001b791     0000931c     00008270   main_pem3.oem3 (.text:ti_sysbios_BIOS_startFunc__I)
xdc_runtime_System_atexit__E  $Tramp$TT$L$PI$$xdc_runtime_System_atexit__E
   1001c67d     00009324     00008268   main_pem3.oem3 (.text:ti_sysbios_BIOS_startFunc__I)
ti_sysbios_BIOS_setThreadType__E  $Tramp$TT$L$PI$$ti_sysbios_BIOS_setThreadType__E
   1001c041     0000932c     00008234   main_pem3.oem3 (.text:ti_sysbios_BIOS_atExitFunc__I)
                             00008d44   main_pem3.oem3 (.text:ti_sysbios_BIOS_exitFunc__I)
xdc_runtime_Gate_leaveSystem__E  $Tramp$TT$L$PI$$xdc_runtime_Gate_leaveSystem__E
   1001c875     00009334     00007bc8   rom_sysbios.aem3 : rom_sysbios.obj (.text:xdc_runtime_SysMin_flush__E)
                             00007e24                    : rom_sysbios.obj (.text:xdc_runtime_SysMin_putch__E)
xdc_runtime_Gate_enterSystem__E  $Tramp$TT$L$PI$$xdc_runtime_Gate_enterSystem__E
   1001c881     0000933c     00007b9a   rom_sysbios.aem3 : rom_sysbios.obj (.text:xdc_runtime_SysMin_flush__E)
                             00007e06                    : rom_sysbios.obj (.text:xdc_runtime_SysMin_putch__E)
ti_sysbios_BIOS_start__E  $Tramp$TT$L$PI$$ti_sysbios_BIOS_start__E
   1001c051     00009344     00007aec   main.obj (.text:main)
xdc_runtime_System_exit__E  $Tramp$TT$L$PI$$xdc_runtime_System_exit__E
   1001c7cd     0000934c     00007ab4   boot.aem3 : boot.oem3 (.text)
                             00008d4a   main_pem3.oem3 (.text:ti_sysbios_BIOS_exitFunc__I)
ti_sysbios_BIOS_getCpuFreq__E  $Tramp$TT$L$PI$$ti_sysbios_BIOS_getCpuFreq__E
   1001bff5     00009354     00007928   drivers_cc13xxware.aem3 : I2CCC26XX.oem3 (.text:I2CCC26XX_initHw)
ti_sysbios_knl_Task_unblockI__E  $Tramp$TT$L$PI$$ti_sysbios_knl_Task_unblockI__E
   1001b9a1     0000935c     000068de   rom_sysbios.aem3 : rom_sysbios.obj (.text:ti_sysbios_knl_Event_post__E)
                             000084f2                    : rom_sysbios.obj (.text:ti_sysbios_knl_Event_pendTimeout__I)
ti_sysbios_knl_Queue_remove__E  $Tramp$TT$L$PI$$ti_sysbios_knl_Queue_remove__E
   1001c11d     00009364     000068ca   rom_sysbios.aem3 : rom_sysbios.obj (.text:ti_sysbios_knl_Event_post__E)
                             000084e6                    : rom_sysbios.obj (.text:ti_sysbios_knl_Event_pendTimeout__I)
ti_sysbios_knl_Queue_head__E  $Tramp$TT$L$PI$$ti_sysbios_knl_Queue_head__E
   1001c2d1     0000936c     000068b2   rom_sysbios.aem3 : rom_sysbios.obj (.text:ti_sysbios_knl_Event_post__E)
ti_sysbios_knl_Queue_empty__E  $Tramp$TT$L$PI$$ti_sysbios_knl_Queue_empty__E
   1001c10f     00009374     000068a4   rom_sysbios.aem3 : rom_sysbios.obj (.text:ti_sysbios_knl_Event_post__E)
ti_sysbios_knl_Clock_scheduleNextTick__E  $Tramp$TT$L$PI$$ti_sysbios_knl_Clock_scheduleNextTick__E
   1001beb9     0000937c     00005dbe   rom_sysbios.aem3 : rom_sysbios.obj (.text:ti_sysbios_knl_Clock_workFuncDynamic__E)
ti_sysbios_knl_Clock_walkQueueDynamic__E  $Tramp$TT$L$PI$$ti_sysbios_knl_Clock_walkQueueDynamic__E
   1001a809     00009384     00005d86   rom_sysbios.aem3 : rom_sysbios.obj (.text:ti_sysbios_knl_Clock_workFuncDynamic__E)
                             00005da2                    : rom_sysbios.obj (.text:ti_sysbios_knl_Clock_workFuncDynamic__E)
ti_sysbios_knl_Clock_TimerProxy_getCurrentTick__E  $Tramp$TT$L$PI$$ti_sysbios_knl_Clock_TimerProxy_getCurrentTick__E
   1001c091     0000938c     00005d54   rom_sysbios.aem3 : rom_sysbios.obj (.text:ti_sysbios_knl_Clock_workFuncDynamic__E)
                             0000848a                    : rom_sysbios.obj (.text:ti_sysbios_knl_Clock_getTicksUntilInterrupt__E)
ti_sysbios_family_arm_m3_Hwi_disableInterrupt__E  $Tramp$TT$L$PI$$ti_sysbios_family_arm_m3_Hwi_disableInterrupt__E
   1001b251     00009394     00005596   drivers_cc13xxware.aem3 : I2CCC26XX.oem3 (.text:I2CCC26XX_transfer)
                             00009218   scif_framework.obj (.text:osalDisableCtrlReadyInt)
                             00009222   scif_framework.obj (.text:osalDisableTaskAlertInt)
ti_sysbios_family_arm_m3_Hwi_enableInterrupt__E  $Tramp$TT$L$PI$$ti_sysbios_family_arm_m3_Hwi_enableInterrupt__E
   1001b295     0000939c     000054fc   rf_singleMode_cc13xxware.aem3 : RFCC26XX_singleMode.oem3 (.text:fsmPowerUpState)
                             000055a8   drivers_cc13xxware.aem3 : I2CCC26XX.oem3 (.text:I2CCC26XX_transfer)
                             0000922c   scif_framework.obj (.text:osalEnableCtrlReadyInt)
                             00009236   scif_framework.obj (.text:osalEnableTaskAlertInt)
ti_sysbios_knl_Clock_removeI__E  $Tramp$TT$L$PI$$ti_sysbios_knl_Clock_removeI__E
   1001c2b9     000093a4     00004960   rom_sysbios.aem3 : rom_sysbios.obj (.text:ti_sysbios_knl_Event_pend__E)
                             00004980                    : rom_sysbios.obj (.text:ti_sysbios_knl_Event_pend__E)
ti_sysbios_knl_Clock_startI__E  $Tramp$TT$L$PI$$ti_sysbios_knl_Clock_startI__E
   1001a715     000093ac     00004946   rom_sysbios.aem3 : rom_sysbios.obj (.text:ti_sysbios_knl_Event_pend__E)
ti_sysbios_knl_Task_blockI__E  $Tramp$TT$L$PI$$ti_sysbios_knl_Task_blockI__E
   1001b611     000093b4     00004936   rom_sysbios.aem3 : rom_sysbios.obj (.text:ti_sysbios_knl_Event_pend__E)
ti_sysbios_knl_Queue_enqueue__E  $Tramp$TT$L$PI$$ti_sysbios_knl_Queue_enqueue__E
   1001c1b1     000093bc     00004930   rom_sysbios.aem3 : rom_sysbios.obj (.text:ti_sysbios_knl_Event_pend__E)
ti_sysbios_knl_Task_self__E  $Tramp$TT$L$PI$$ti_sysbios_knl_Task_self__E
   1001c1e1     000093c4     000048f4   rom_sysbios.aem3 : rom_sysbios.obj (.text:ti_sysbios_knl_Event_pend__E)
ti_sysbios_knl_Clock_addI__E  $Tramp$TT$L$PI$$ti_sysbios_knl_Clock_addI__E
   1001ba1d     000093cc     000048d4   rom_sysbios.aem3 : rom_sysbios.obj (.text:ti_sysbios_knl_Event_pend__E)
ti_sysbios_knl_Swi_post__E  $Tramp$TT$L$PI$$ti_sysbios_knl_Swi_post__E
   1001b31d     000093d4     000048a6   drivers_cc13xxware.aem3 : I2CCC26XX.oem3 (.text:I2CCC26XX_hwiFxn)
                             000055e6                           : I2CCC26XX.oem3 (.text:I2CCC26XX_transfer)
                             000073ec                           : I2CCC26XX.oem3 (.text:I2CCC26XX_swiFxn)
                             00008d20   rom_sysbios.aem3 : rom_sysbios.obj (.text:ti_sysbios_knl_Swi_or__E)
                             00008eea   main_pem3.oem3 (.text:ti_sysbios_knl_Clock_doTick__I)
ti_sysbios_family_arm_m3_Hwi_destruct  $Tramp$TT$L$PI$$ti_sysbios_family_arm_m3_Hwi_destruct
   1001c25d     000093dc     0000436c   rf_singleMode_cc13xxware.aem3 : RFCC26XX_singleMode.oem3 (.text:RF_close)
                             00004378                                 : RFCC26XX_singleMode.oem3 (.text:RF_close)
                             00006cd8   drivers_cc13xxware.aem3 : I2CCC26XX.oem3 (.text:I2CCC26XX_close)
ti_sysbios_knl_Swi_destruct  $Tramp$TT$L$PI$$ti_sysbios_knl_Swi_destruct
   1001c2e5     000093e4     00004366   rf_singleMode_cc13xxware.aem3 : RFCC26XX_singleMode.oem3 (.text:RF_close)
                             00004372                                 : RFCC26XX_singleMode.oem3 (.text:RF_close)
                             00006ce0   drivers_cc13xxware.aem3 : I2CCC26XX.oem3 (.text:I2CCC26XX_close)
ti_sysbios_knl_Clock_destruct  $Tramp$TT$L$PI$$ti_sysbios_knl_Clock_destruct
   1001c2b5     000093ec     00004360   rf_singleMode_cc13xxware.aem3 : RFCC26XX_singleMode.oem3 (.text:RF_close)
                             0000437e                                 : RFCC26XX_singleMode.oem3 (.text:RF_close)
                             000043b0                                 : RFCC26XX_singleMode.oem3 (.text:RF_close)
ti_sysbios_knl_Semaphore_destruct  $Tramp$TT$L$PI$$ti_sysbios_knl_Semaphore_destruct
   1001c2dd     000093f4     00004358   rf_singleMode_cc13xxware.aem3 : RFCC26XX_singleMode.oem3 (.text:RF_close)
                             000043a8                                 : RFCC26XX_singleMode.oem3 (.text:RF_close)
                             00006ce8   drivers_cc13xxware.aem3 : I2CCC26XX.oem3 (.text:I2CCC26XX_close)
                             00006cf4                           : I2CCC26XX.oem3 (.text:I2CCC26XX_close)
ti_sysbios_knl_Clock_construct  $Tramp$TT$L$PI$$ti_sysbios_knl_Clock_construct
   1001b575     000093fc     00003a1e   drivers_cc13xxware.aem3 : PowerCC26XX.oem3 (.text:Power_init)
                             00003a2c                           : PowerCC26XX.oem3 (.text:Power_init)
                             00003a3a                           : PowerCC26XX.oem3 (.text:Power_init)
                             00003ba2   rf_singleMode_cc13xxware.aem3 : RFCC26XX_singleMode.oem3 (.text:rf_init)
                             00005390                                 : RFCC26XX_singleMode.oem3 (.text:RF_open)
                             00005cd8   NodeTask.obj (.text:NodeTask_init)
                             00006a84   drivers_cc13xxware.aem3 : PowerCC26XX.oem3 (.text:PowerCC26XX_calibrate)
ti_sysbios_knl_Clock_Params__init__S  $Tramp$TT$L$PI$$ti_sysbios_knl_Clock_Params__init__S
   1001c181     00009404     00003a06   drivers_cc13xxware.aem3 : PowerCC26XX.oem3 (.text:Power_init)
                             00005380   rf_singleMode_cc13xxware.aem3 : RFCC26XX_singleMode.oem3 (.text:RF_open)
                             00006a6c   drivers_cc13xxware.aem3 : PowerCC26XX.oem3 (.text:PowerCC26XX_calibrate)
ti_sysbios_knl_Task_construct  $Tramp$TT$L$PI$$ti_sysbios_knl_Task_construct
   1001b125     0000940c     0000352e   Sensor.obj (.text:InitSensors)
                             000058a6   NodeRadioTask.obj (.text:NodeRadioTask_init)
                             00005d08   NodeTask.obj (.text:NodeTask_init)
ti_sysbios_knl_Task_sleep__E  $Tramp$TT$L$PI$$ti_sysbios_knl_Task_sleep__E
   1001a9d9     00009414     00003332   EasyLink.obj (.text:enableTestMode)
                             0000514e   Sensor.obj (.text:fetchSensorData)
                             000051ea   Sensor.obj (.text:fetchSensorData)
                             00005bc2   Sensor.obj (.text:HDC_readData)
xdc_runtime_System_abortSpin__E  $Tramp$TT$L$PI$$xdc_runtime_System_abortSpin__E
   1001c895     0000941c     00002bc4   drivers_cc13xxware.aem3 : PowerCC26XX_calibrateRCOSC.oem3 (.text:PowerCC26XX_doCalibrate)
                             00006ec2                           : PowerCC26XX_calibrateRCOSC.oem3 (.text:PowerCC26XX_RCOSC_clockFunc)
ti_sysbios_knl_Swi_construct  $Tramp$TT$L$PI$$ti_sysbios_knl_Swi_construct
   1001b085     00009424     00002a78   drivers_cc13xxware.aem3 : PINCC26XX.oem3 (.text:PIN_init)
                             00003b32   rf_singleMode_cc13xxware.aem3 : RFCC26XX_singleMode.oem3 (.text:rf_init)
                             00003b72                                 : RFCC26XX_singleMode.oem3 (.text:rf_init)
                             00004574   drivers_cc13xxware.aem3 : I2CCC26XX.oem3 (.text:I2CCC26XX_open)
ti_sysbios_knl_Swi_Params__init__S  $Tramp$TT$L$PI$$ti_sysbios_knl_Swi_Params__init__S
   1001c1c9     0000942c     00002a66   drivers_cc13xxware.aem3 : PINCC26XX.oem3 (.text:PIN_init)
                             00003b20   rf_singleMode_cc13xxware.aem3 : RFCC26XX_singleMode.oem3 (.text:rf_init)
                             00003b62                                 : RFCC26XX_singleMode.oem3 (.text:rf_init)
                             00004560   drivers_cc13xxware.aem3 : I2CCC26XX.oem3 (.text:I2CCC26XX_open)
ti_sysbios_family_arm_m3_Hwi_construct  $Tramp$TT$L$PI$$ti_sysbios_family_arm_m3_Hwi_construct
   1001af29     00009434     00002a5a   drivers_cc13xxware.aem3 : PINCC26XX.oem3 (.text:PIN_init)
                             00003b56   rf_singleMode_cc13xxware.aem3 : RFCC26XX_singleMode.oem3 (.text:rf_init)
                             00003b96                                 : RFCC26XX_singleMode.oem3 (.text:rf_init)
                             00004554   drivers_cc13xxware.aem3 : I2CCC26XX.oem3 (.text:I2CCC26XX_open)
                             00006a94                           : PowerCC26XX.oem3 (.text:PowerCC26XX_calibrate)
                             00006e28                           : GPTimerCC26XX.oem3 (.text:GPTimerCC26XX_registerInterrupt)
                             000081e6   scif_framework.obj (.text:osalRegisterCtrlReadyInt)
                             00008216   scif_framework.obj (.text:osalRegisterTaskAlertInt)
ti_sysbios_family_arm_m3_Hwi_Params__init__S  $Tramp$TT$L$PI$$ti_sysbios_family_arm_m3_Hwi_Params__init__S
   1001c139     0000943c     00002a44   drivers_cc13xxware.aem3 : PINCC26XX.oem3 (.text:PIN_init)
                             00003b3e   rf_singleMode_cc13xxware.aem3 : RFCC26XX_singleMode.oem3 (.text:rf_init)
                             00003b7e                                 : RFCC26XX_singleMode.oem3 (.text:rf_init)
                             0000453c   drivers_cc13xxware.aem3 : I2CCC26XX.oem3 (.text:I2CCC26XX_open)
                             00006e02                           : GPTimerCC26XX.oem3 (.text:GPTimerCC26XX_registerInterrupt)
                             00008d60   scif_framework.obj (.text:ti_sysbios_family_arm_m3_Hwi_Params_init)
ti_sysbios_knl_Semaphore_construct  $Tramp$TT$L$PI$$ti_sysbios_knl_Semaphore_construct
   1001b705     00009444     000029e2   drivers_cc13xxware.aem3 : PINCC26XX.oem3 (.text:PIN_init)
                             00004590                           : I2CCC26XX.oem3 (.text:I2CCC26XX_open)
                             000045a0                           : I2CCC26XX.oem3 (.text:I2CCC26XX_open)
                             00005374   rf_singleMode_cc13xxware.aem3 : RFCC26XX_singleMode.oem3 (.text:RF_open)
                             0000584a   NodeRadioTask.obj (.text:NodeRadioTask_init)
                             0000585e   NodeRadioTask.obj (.text:NodeRadioTask_init)
                             00008778   scif_framework.obj (.text:scifOsalInit)
ti_sysbios_knl_Semaphore_Params__init__S  $Tramp$TT$L$PI$$ti_sysbios_knl_Semaphore_Params__init__S
   1001c1bd     0000944c     000029d0   drivers_cc13xxware.aem3 : PINCC26XX.oem3 (.text:PIN_init)
                             00004580                           : I2CCC26XX.oem3 (.text:I2CCC26XX_open)
                             00005364   rf_singleMode_cc13xxware.aem3 : RFCC26XX_singleMode.oem3 (.text:RF_open)
                             00008da2   EasyLink.obj (.text:ti_sysbios_knl_Semaphore_Params_init)
                             00008db8   NodeRadioTask.obj (.text:ti_sysbios_knl_Semaphore_Params_init)
                             00008dce   scif_framework.obj (.text:ti_sysbios_knl_Semaphore_Params_init)
ti_sysbios_knl_Clock_getTicks__E  $Tramp$TT$L$PI$$ti_sysbios_knl_Clock_getTicks__E
   1001b6d5     00009454     000027b0   NodeRadioTask.obj (.text:nodeRadioTaskFunction)
                             000027d2   NodeRadioTask.obj (.text:nodeRadioTaskFunction)
xdc_runtime_System_abort__E  $Tramp$TT$L$PI$$xdc_runtime_System_abort__E
   1001c745     0000945c     00002758   NodeRadioTask.obj (.text:nodeRadioTaskFunction)
                             0000279e   NodeRadioTask.obj (.text:nodeRadioTaskFunction)
                             000030f6   NodeTask.obj (.text:nodeTaskFunction)
                             00003140   NodeTask.obj (.text:nodeTaskFunction)
                             00003152   NodeTask.obj (.text:nodeTaskFunction)
                             0000350e   Sensor.obj (.text:InitSensors)
                             000035b8   Sensor.obj (.text:InitSensors)
                             000057be   NodeRadioTask.obj (.text:sendDmPacket)
                             000057ce   NodeRadioTask.obj (.text:sendDmPacket)
                             000066cc   NodeRadioTask.obj (.text:resendPacket)
                             000066dc   NodeRadioTask.obj (.text:resendPacket)
                             00007adc   main.obj (.text:main)
ti_sysbios_knl_Task_restore__E  $Tramp$TT$L$PI$$ti_sysbios_knl_Task_restore__E
   1001ba45     00009464     0000233c   drivers_cc13xxware.aem3 : PowerCC26XX.oem3 (.text:Power_sleep)
                             00004950   rom_sysbios.aem3 : rom_sysbios.obj (.text:ti_sysbios_knl_Event_pend__E)
                             000068e8                    : rom_sysbios.obj (.text:ti_sysbios_knl_Event_post__E)
ti_sysbios_knl_Swi_restore__E  $Tramp$TT$L$PI$$ti_sysbios_knl_Swi_restore__E
   1001b5dd     0000946c     00002332   drivers_cc13xxware.aem3 : PowerCC26XX.oem3 (.text:Power_sleep)
                             00006416   rf_singleMode_cc13xxware.aem3 : RFCC26XX_singleMode.oem3 (.text:RF_pendCmd)
                             0000643c                                 : RFCC26XX_singleMode.oem3 (.text:RF_pendCmd)
                             0000645a                                 : RFCC26XX_singleMode.oem3 (.text:RF_pendCmd)
ti_sysbios_knl_Swi_disable__E  $Tramp$TT$L$PI$$ti_sysbios_knl_Swi_disable__E
   1001c0d1     00009474     0000218e   drivers_cc13xxware.aem3 : PowerCC26XX.oem3 (.text:Power_sleep)
                             00006400   rf_singleMode_cc13xxware.aem3 : RFCC26XX_singleMode.oem3 (.text:RF_pendCmd)
                             0000822a   main_pem3.oem3 (.text:ti_sysbios_BIOS_atExitFunc__I)
ti_sysbios_knl_Task_disable__E  $Tramp$TT$L$PI$$ti_sysbios_knl_Task_disable__E
   1001c0f1     0000947c     00002176   drivers_cc13xxware.aem3 : PowerCC26XX.oem3 (.text:Power_sleep)
                             00004920   rom_sysbios.aem3 : rom_sysbios.obj (.text:ti_sysbios_knl_Event_pend__E)
                             000068aa                    : rom_sysbios.obj (.text:ti_sysbios_knl_Event_post__E)
                             0000822e   main_pem3.oem3 (.text:ti_sysbios_BIOS_atExitFunc__I)
ti_sysbios_knl_Semaphore_create  $Tramp$TT$L$PI$$ti_sysbios_knl_Semaphore_create
   1001b5a9     00009484     00001b26   EasyLink.obj (.text:EasyLink_init)
xdc_runtime_Error_init__E  $Tramp$TT$L$PI$$xdc_runtime_Error_init__E
   1001c83d     0000948c     00001b16   EasyLink.obj (.text:EasyLink_init)
ti_sysbios_knl_Semaphore_post__E  $Tramp$TT$L$PI$$ti_sysbios_knl_Semaphore_post__E
   1001ac41     00009494     00001a90   EasyLink.obj (.text:EasyLink_init)
                             00001b44   EasyLink.obj (.text:EasyLink_init)
                             00001b5c   EasyLink.obj (.text:EasyLink_init)
                             00002c9a   EasyLink.obj (.text:rxDoneCallback)
                             00003738   EasyLink.obj (.text:EasyLink_transmit)
                             00004c08   EasyLink.obj (.text:EasyLink_enableRxAddrFilter)
                             000055ec   drivers_cc13xxware.aem3 : I2CCC26XX.oem3 (.text:I2CCC26XX_transfer)
                             00005eea                           : PINCC26XX.oem3 (.text:PIN_open)
                             0000666a   rf_singleMode_cc13xxware.aem3 : RFCC26XX_singleMode.oem3 (.text:fsmPowerDownState)
                             00007058   NodeRadioTask.obj (.text:NodeRadioTask_sendAdcData)
                             000077ec   rf_singleMode_cc13xxware.aem3 : RFCC26XX_singleMode.oem3 (.text:syncCb)
                             00008408   EasyLink.obj (.text:asyncCmdCallback)
                             00008744   scif_framework.obj (.text:osalIndicateCtrlReady)
                             000088ea   NodeRadioTask.obj (.text:returnRadioOperationStatus)
                             00009248   drivers_cc13xxware.aem3 : I2CCC26XX.oem3 (.text:I2CCC26XX_blockingCallback)
ti_sysbios_knl_Semaphore_pend__E  $Tramp$TT$L$PI$$ti_sysbios_knl_Semaphore_pend__E
   1001a001     0000949c     000018be   EasyLink.obj (.text:EasyLink_init)
                             00002e2a   EasyLink.obj (.text:EasyLink_receiveAsync)
                             0000327a   EasyLink.obj (.text:enableTestMode)
                             00003658   EasyLink.obj (.text:EasyLink_transmit)
                             00004350   rf_singleMode_cc13xxware.aem3 : RFCC26XX_singleMode.oem3 (.text:RF_close)
                             00004b84   EasyLink.obj (.text:EasyLink_enableRxAddrFilter)
                             0000558e   drivers_cc13xxware.aem3 : I2CCC26XX.oem3 (.text:I2CCC26XX_transfer)
                             000055be                           : I2CCC26XX.oem3 (.text:I2CCC26XX_transfer)
                             00005e82                           : PINCC26XX.oem3 (.text:PIN_open)
                             00006448   rf_singleMode_cc13xxware.aem3 : RFCC26XX_singleMode.oem3 (.text:RF_pendCmd)
                             0000702a   NodeRadioTask.obj (.text:NodeRadioTask_sendAdcData)
                             00007048   NodeRadioTask.obj (.text:NodeRadioTask_sendAdcData)
ti_sysbios_knl_Clock_start__E  $Tramp$TT$L$PI$$ti_sysbios_knl_Clock_start__E
   1001bfdf     000094a4     000017a4   rf_singleMode_cc13xxware.aem3 : RFCC26XX_singleMode.oem3 (.text:fsmActiveState)
                             00002694                                 : RFCC26XX_singleMode.oem3 (.text:RF_postCmd)
                             00002c52   drivers_cc13xxware.aem3 : PowerCC26XX_calibrateRCOSC.oem3 (.text:PowerCC26XX_doCalibrate)
                             00003128   NodeTask.obj (.text:nodeTaskFunction)
                             00003ac8   drivers_cc13xxware.aem3 : PowerCC26XX.oem3 (.text:Power_init)
                             00004fd8   power_cc13xx_tirtos.aem3 : PowerCC26XX_tirtos.oem3 (.text:PowerCC26XX_standbyPolicy)
                             0000607a   drivers_cc13xxware.aem3 : PowerCC26XX.oem3 (.text:switchXOSCHFclockFunc)
                             00006208                           : PowerCC26XX.oem3 (.text:disableLFClockQualifiers)
                             0000662c   rf_singleMode_cc13xxware.aem3 : RFCC26XX_singleMode.oem3 (.text:decActiveClientCnt)
                             00006f38                                 : RFCC26XX_singleMode.oem3 (.text:fsmXOSCState)
                             000075f6   drivers_cc13xxware.aem3 : PowerCC26XX.oem3 (.text:configureXOSCHF)
                             00007ffc   NodeTask.obj (.text:buttonCallback)
                             0000896a   rom_sysbios.aem3 : rom_sysbios.obj (.text:ti_sysbios_knl_Clock_stop__E)
ti_sysbios_knl_Clock_setTimeout__E  $Tramp$TT$L$PI$$ti_sysbios_knl_Clock_setTimeout__E
   1001c2bd     000094ac     0000179c   rf_singleMode_cc13xxware.aem3 : RFCC26XX_singleMode.oem3 (.text:fsmActiveState)
                             0000268e                                 : RFCC26XX_singleMode.oem3 (.text:RF_postCmd)
                             00003120   NodeTask.obj (.text:nodeTaskFunction)
                             00003ac2   drivers_cc13xxware.aem3 : PowerCC26XX.oem3 (.text:Power_init)
                             00004fd2   power_cc13xx_tirtos.aem3 : PowerCC26XX_tirtos.oem3 (.text:PowerCC26XX_standbyPolicy)
                             00006074   drivers_cc13xxware.aem3 : PowerCC26XX.oem3 (.text:switchXOSCHFclockFunc)
                             00006202                           : PowerCC26XX.oem3 (.text:disableLFClockQualifiers)
                             00006626   rf_singleMode_cc13xxware.aem3 : RFCC26XX_singleMode.oem3 (.text:decActiveClientCnt)
                             00006f32                                 : RFCC26XX_singleMode.oem3 (.text:fsmXOSCState)
                             000075f0   drivers_cc13xxware.aem3 : PowerCC26XX.oem3 (.text:configureXOSCHF)
ti_sysbios_family_arm_m3_Hwi_restoreFxn__E  $Tramp$TT$L$PI$$ti_sysbios_family_arm_m3_Hwi_restoreFxn__E
   1001c215     000094b4     00001758   rf_singleMode_cc13xxware.aem3 : RFCC26XX_singleMode.oem3 (.text:fsmActiveState)
                             000017e6                                 : RFCC26XX_singleMode.oem3 (.text:fsmActiveState)
                             00001806                                 : RFCC26XX_singleMode.oem3 (.text:fsmActiveState)
                             00002634                                 : RFCC26XX_singleMode.oem3 (.text:RF_postCmd)
                             0000269e                                 : RFCC26XX_singleMode.oem3 (.text:RF_postCmd)
                             000026f8                                 : RFCC26XX_singleMode.oem3 (.text:RF_postCmd)
                             00004334                                 : RFCC26XX_singleMode.oem3 (.text:RF_close)
                             00004396                                 : RFCC26XX_singleMode.oem3 (.text:RF_close)
                             00004508   drivers_cc13xxware.aem3 : I2CCC26XX.oem3 (.text:I2CCC26XX_open)
                             00004518                           : I2CCC26XX.oem3 (.text:I2CCC26XX_open)
                             00004a52                           : PINCC26XX.oem3 (.text:PINCC26XX_setIoCfg)
                             0000511e                           : PowerCC26XX.oem3 (.text:Power_releaseDependency)
                             000052c2                           : PowerCC26XX.oem3 (.text:Power_setDependency)
                             00005314   rf_singleMode_cc13xxware.aem3 : RFCC26XX_singleMode.oem3 (.text:RF_open)
                             00005322                                 : RFCC26XX_singleMode.oem3 (.text:RF_open)
                             00005568   drivers_cc13xxware.aem3 : I2CCC26XX.oem3 (.text:I2CCC26XX_transfer)
                             0000557a                           : I2CCC26XX.oem3 (.text:I2CCC26XX_transfer)
                             00006016                           : I2CCC26XX.oem3 (.text:I2CCC26XX_cancel)
                             000060a2                           : PowerCC26XX.oem3 (.text:switchXOSCHFclockFunc)
                             00006104                           : GPTimerCC26XX.oem3 (.text:GPTimerCC26XX_open)
                             00006120                           : GPTimerCC26XX.oem3 (.text:GPTimerCC26XX_open)
                             000063b6   rf_singleMode_cc13xxware.aem3 : RFCC26XX_singleMode.oem3 (.text:swiFxnHw)
                             000063d0                                 : RFCC26XX_singleMode.oem3 (.text:swiFxnHw)
                             00006632                                 : RFCC26XX_singleMode.oem3 (.text:decActiveClientCnt)
                             00006bf4                                 : RFCC26XX_singleMode.oem3 (.text:RF_getCurrentTime)
                             00006bfc                                 : RFCC26XX_singleMode.oem3 (.text:RF_getCurrentTime)
                             00006d08   drivers_cc13xxware.aem3 : I2CCC26XX.oem3 (.text:I2CCC26XX_close)
                             00007330                           : GPTimerCC26XX.oem3 (.text:GPTimerCC26XX_stop)
                             0000733e                           : GPTimerCC26XX.oem3 (.text:GPTimerCC26XX_stop)
                             0000742a                           : PowerCC26XX_calibrateRCOSC.oem3 (.text:PowerCC26XX_initiateCalibration)
                             000076a2   rf_singleMode_cc13xxware.aem3 : RFCC26XX_singleMode.oem3 (.text:ratChanFree)
                             00007828   drivers_cc13xxware.aem3 : GPTimerCC26XX.oem3 (.text:GPTimerCC26XX_start)
                             00007834                           : GPTimerCC26XX.oem3 (.text:GPTimerCC26XX_start)
                             00007f9c   rf_singleMode_cc13xxware.aem3 : RFCC26XX_singleMode.oem3 (.text:Q_push)
                             0000815c   drivers_cc13xxware.aem3 : PowerCC26XX.oem3 (.text:Power_releaseConstraint)
                             0000818c                           : PowerCC26XX.oem3 (.text:Power_setConstraint)
                             0000845c   scif_framework.obj (.text:osalLockCtrlTaskNbl)
                             0000846c   scif_framework.obj (.text:osalLockCtrlTaskNbl)
                             000085e8   rf_singleMode_cc13xxware.aem3 : RFCC26XX_singleMode.oem3 (.text:Q_end)
                             00008638   drivers_cc13xxware.aem3 : List.oem3 (.text:List_put)
                             000088ac                           : PowerCC26XX.oem3 (.text:Power_unregisterNotify)
                             00008c74   rf_singleMode_cc13xxware.aem3 : RFCC26XX_singleMode.oem3 (.text:Q_pop)
                             00009172   scif_framework.obj (.text:scifOsalLeaveCriticalSection)
ti_sysbios_family_arm_m3_Hwi_disableFxn__E  $Tramp$TT$L$PI$$ti_sysbios_family_arm_m3_Hwi_disableFxn__E
   1001c145     000094bc     0000173a   rf_singleMode_cc13xxware.aem3 : RFCC26XX_singleMode.oem3 (.text:fsmActiveState)
                             000017c6                                 : RFCC26XX_singleMode.oem3 (.text:fsmActiveState)
                             00002574                                 : RFCC26XX_singleMode.oem3 (.text:RF_postCmd)
                             0000264e                                 : RFCC26XX_singleMode.oem3 (.text:RF_postCmd)
                             0000431c                                 : RFCC26XX_singleMode.oem3 (.text:RF_close)
                             000044fc   drivers_cc13xxware.aem3 : I2CCC26XX.oem3 (.text:I2CCC26XX_open)
                             00004a34                           : PINCC26XX.oem3 (.text:PINCC26XX_setIoCfg)
                             0000506a                           : PowerCC26XX.oem3 (.text:Power_releaseDependency)
                             00005212                           : PowerCC26XX.oem3 (.text:Power_setDependency)
                             0000530a   rf_singleMode_cc13xxware.aem3 : RFCC26XX_singleMode.oem3 (.text:RF_open)
                             00005554   drivers_cc13xxware.aem3 : I2CCC26XX.oem3 (.text:I2CCC26XX_transfer)
                             00005fa6                           : I2CCC26XX.oem3 (.text:I2CCC26XX_cancel)
                             0000602c                           : PowerCC26XX.oem3 (.text:switchXOSCHFclockFunc)
                             000060e0                           : GPTimerCC26XX.oem3 (.text:GPTimerCC26XX_open)
                             00006372   rf_singleMode_cc13xxware.aem3 : RFCC26XX_singleMode.oem3 (.text:swiFxnHw)
                             000065dc                                 : RFCC26XX_singleMode.oem3 (.text:decActiveClientCnt)
                             00006be6                                 : RFCC26XX_singleMode.oem3 (.text:RF_getCurrentTime)
                             00006d00   drivers_cc13xxware.aem3 : I2CCC26XX.oem3 (.text:I2CCC26XX_close)
                             00007322                           : GPTimerCC26XX.oem3 (.text:GPTimerCC26XX_stop)
                             00007416                           : PowerCC26XX_calibrateRCOSC.oem3 (.text:PowerCC26XX_initiateCalibration)
                             00007664   rf_singleMode_cc13xxware.aem3 : RFCC26XX_singleMode.oem3 (.text:ratChanFree)
                             00007816   drivers_cc13xxware.aem3 : GPTimerCC26XX.oem3 (.text:GPTimerCC26XX_start)
                             00007f7e   rf_singleMode_cc13xxware.aem3 : RFCC26XX_singleMode.oem3 (.text:Q_push)
                             00007f86                                 : RFCC26XX_singleMode.oem3 (.text:Q_push)
                             0000813c   drivers_cc13xxware.aem3 : PowerCC26XX.oem3 (.text:Power_releaseConstraint)
                             0000816c                           : PowerCC26XX.oem3 (.text:Power_setConstraint)
                             0000844e   scif_framework.obj (.text:osalLockCtrlTaskNbl)
                             000085cc   rf_singleMode_cc13xxware.aem3 : RFCC26XX_singleMode.oem3 (.text:Q_end)
                             0000889c   drivers_cc13xxware.aem3 : PowerCC26XX.oem3 (.text:Power_unregisterNotify)
                             00008c68   rf_singleMode_cc13xxware.aem3 : RFCC26XX_singleMode.oem3 (.text:Q_pop)
                             0000926e   scif_framework.obj (.text:scifOsalEnterCriticalSection)
                             0000929a   tirtosport.aem3 : HwiP_tirtos.oem3 (.text:HwiP_disable)

[64 trampolines]
[277 trampoline calls]


GLOBAL SYMBOLS: SORTED ALPHABETICALLY BY Name 

address   name                                                                      
-------   ----                                                                      
00006969  BMP_readData                                                              
0000ce18  BoardGpioInitTable                                                        
00007dbb  C$$IO$$                                                                   
00004b5d  EasyLink_enableRxAddrFilter                                               
000018a9  EasyLink_init                                                             
00002e05  EasyLink_receiveAsync                                                     
000055f9  EasyLink_setCtrl                                                          
00003635  EasyLink_transmit                                                         
00006aad  Find_median                                                               
000090c5  GPTimerCC26XX_Params_init                                                 
0000cb94  GPTimerCC26XX_config                                                      
00008551  GPTimerCC26XX_configureDebugStall                                         
00008665  GPTimerCC26XX_enableInterrupt                                             
0000927d  GPTimerCC26XX_getValue                                                    
000060b9  GPTimerCC26XX_open                                                        
00006de1  GPTimerCC26XX_registerInterrupt                                           
0000923d  GPTimerCC26XX_setLoadValue                                                
000077f5  GPTimerCC26XX_start                                                       
000072fd  GPTimerCC26XX_stop                                                        
00005b71  HDC_readData                                                              
00007355  HOSTwrite                                                                 
0000929b  HwiP_disable                                                              
1001c215  HwiP_restore                                                              
00005f99  I2CCC26XX_cancel                                                          
00006cb5  I2CCC26XX_close                                                           
00009283  I2CCC26XX_control                                                         
0000cd58  I2CCC26XX_fxnTable                                                        
000091d9  I2CCC26XX_init                                                            
000044ed  I2CCC26XX_open                                                            
00005535  I2CCC26XX_transfer                                                        
00008f95  I2C_Params_init                                                           
0000cd98  I2C_config                                                                
0000ce38  I2C_defaultParams                                                         
00007d55  I2C_init                                                                  
000080a9  I2C_open                                                                  
000091e3  I2C_transfer                                                              
000034f5  InitSensors                                                               
000091ed  List_empty                                                                
0000929f  List_head                                                                 
000092a3  List_next                                                                 
00008619  List_put                                                                  
00008b29  List_remove                                                               
00008579  NOROM_AONBatMonTemperatureGetDegC                                         
00008e2d  NOROM_AONRTCCurrent64BitValueGet                                          
00008b5d  NOROM_AONRTCCurrentCompareValueGet                                        
000090d1  NOROM_CPUcpsid                                                            
000090dd  NOROM_CPUcpsie                                                            
00009289  NOROM_CPUdelay                                                            
00007969  NOROM_ChipInfo_GetChipFamily                                              
000080d9  NOROM_ChipInfo_GetChipType                                                
000067a9  NOROM_ChipInfo_GetHwRevision                                              
00008b75  NOROM_ChipInfo_GetPackageType                                             
00008345  NOROM_DDI32RegWrite                                                       
00008371  NOROM_OSCClockSourceGet                                                   
00006e41  NOROM_OSCClockSourceSet                                                   
00006d7d  NOROM_OSCHF_AttemptToSwitchToXosc                                         
00007f09  NOROM_OSCHF_SwitchToRcOscTurnOffXosc                                      
00008b8d  NOROM_OSCHF_TurnOnXosc                                                    
00007ca1  NOROM_OSC_HPOSCRelativeFrequencyOffsetGet                                 
00008839  NOROM_RFCAdi3VcoLdoVoltageMode                                            
00008ba5  NOROM_RFCCpeIntGetAndClear                                                
00008859  NOROM_RFCDoorbellSendTo                                                   
00004c35  NOROM_RFCRTrim                                                            
00004ebd  NOROM_RFCRfTrimRead                                                       
00008fa5  NOROM_RFCRfTrimSet                                                        
00007cdd  NOROM_RFCSynthPowerDown                                                   
0000598d  NOROM_SetupAfterColdResetWakeupFromShutDownCfg1                           
000046dd  NOROM_SetupAfterColdResetWakeupFromShutDownCfg2                           
000038a9  NOROM_SetupAfterColdResetWakeupFromShutDownCfg3                           
00008bbd  NOROM_SetupGetTrimForAdcShModeEn                                          
00008bd5  NOROM_SetupGetTrimForAdcShVbufEn                                          
000069d5  NOROM_SetupGetTrimForAmpcompCtrl                                          
00008bed  NOROM_SetupGetTrimForAmpcompTh1                                           
000089f5  NOROM_SetupGetTrimForAmpcompTh2                                           
00006b15  NOROM_SetupGetTrimForAnabypassValue1                                      
00008c05  NOROM_SetupGetTrimForDblrLoopFilterResetVoltage                           
0000839d  NOROM_SetupGetTrimForRadcExtCfg                                           
00008c1d  NOROM_SetupGetTrimForRcOscLfIBiasTrim                                     
00008a11  NOROM_SetupGetTrimForRcOscLfRtuneCtuneTrim                                
00008879  NOROM_SetupGetTrimForXoscHfCtl                                            
00008fb5  NOROM_SetupGetTrimForXoscHfFastStart                                      
00008fc5  NOROM_SetupGetTrimForXoscHfIbiastherm                                     
00008c35  NOROM_SetupGetTrimForXoscLfRegulatorAndCmirrwrRatio                       
00008109  NOROM_SetupSetAonRtcSubSecInc                                             
00007705  NOROM_SetupSetCacheModeAccordingToCcfgSetting                             
000064f1  NOROM_SetupSetVddrLevel                                                   
000058e5  NOROM_SetupTrimDevice                                                     
00006fc1  NOROM_SysCtrlAdjustRechargeAfterPowerDown                                 
00001f2d  NOROM_SysCtrlSetRechargeBeforePowerDown                                   
00006b7d  NOROM_SysCtrl_DCDC_VoltageConditionalControl                              
00008d25  NOROM_ThisCodeIsBuiltForCC13xxHwRev20AndLater_HaltIfViolated              
00009065  NOROM_VIMSModeGet                                                         
00005839  NodeRadioTask_init                                                        
0000701d  NodeRadioTask_sendAdcData                                                 
00005ca9  NodeTask_init                                                             
00008689  PINCC26XX_getPinCount                                                     
0000ce64  PINCC26XX_hwAttrs                                                         
000083c9  PINCC26XX_setMux                                                          
20001c88  PIN_HandleTable                                                           
2000228c  PIN_NumPins                                                               
000089b9  PIN_close                                                                 
00008e41  PIN_getInputValue                                                         
00008e55  PIN_getOutputValue                                                        
00002919  PIN_init                                                                  
00005e71  PIN_open                                                                  
000090e9  PIN_registerIntCb                                                         
00007079  PIN_remove                                                                
00007f3d  PIN_setConfig                                                             
00007d19  PIN_setOutputValue                                                        
00006ea1  PowerCC26XX_RCOSC_clockFunc                                               
00006565  PowerCC26XX_auxISR                                                        
00006a41  PowerCC26XX_calibrate                                                     
0000ce28  PowerCC26XX_config                                                        
00002add  PowerCC26XX_doCalibrate                                                   
00007405  PowerCC26XX_initiateCalibration                                           
200022c8  PowerCC26XX_module                                                        
00004f91  PowerCC26XX_standbyPolicy                                                 
000090f5  Power_getConstraintMask                                                   
00009101  Power_getDependencyCount                                                  
000089d7  Power_getTransitionLatency                                                
00008c4d  Power_idleFunc                                                            
000039d9  Power_init                                                                
000085a1  Power_registerNotify                                                      
00008139  Power_releaseConstraint                                                   
00005065  Power_releaseDependency                                                   
00008169  Power_setConstraint                                                       
0000520d  Power_setDependency                                                       
00002155  Power_sleep                                                               
00008899  Power_unregisterNotify                                                    
0000ce6c  RFCC26XX_hwAttrs                                                          
00008e69  RF_Params_init                                                            
000042e5  RF_close                                                                  
2000298c  RF_cmdFs                                                                  
200029a4  RF_cmdFs_preDef                                                           
2000282c  RF_cmdPropRadioDivSetup                                                   
20002854  RF_cmdPropRadioDivSetup_fsk                                               
2000287c  RF_cmdPropRadioDivSetup_lrm                                               
200028a4  RF_cmdPropRadioDivSetup_ook                                               
2000279c  RF_cmdPropRxAdv_preDef                                                    
200029bc  RF_cmdPropTx                                                              
200029d4  RF_cmdPropTx_preDef                                                       
200029ec  RF_cmdRadioSetup_hsm                                                      
200028cc  RF_cmdRxHS                                                                
20002a64  RF_cmdTxHS                                                                
00006be5  RF_getCurrentTime                                                         
000052dd  RF_open                                                                   
20002758  RF_pCmdFs_preDef                                                          
2000273c  RF_pCmdPropRadioDivSetup_fsk                                              
20002740  RF_pCmdPropRadioDivSetup_lrm                                              
20002744  RF_pCmdPropRadioDivSetup_ook                                              
2000274c  RF_pCmdPropRadioSetup_2_4G_fsk                                            
20002760  RF_pCmdPropRxAdv_preDef                                                   
2000275c  RF_pCmdPropTx_preDef                                                      
20002748  RF_pCmdRadioSetup_hsm                                                     
20002754  RF_pCmdRxHS                                                               
20002750  RF_pCmdTxHS                                                               
20002738  RF_pProp_2_4G_fsk                                                         
20002728  RF_pProp_fsk                                                              
20002734  RF_pProp_hsm                                                              
2000272c  RF_pProp_lrm                                                              
20002730  RF_pProp_ook                                                              
000063f5  RF_pendCmd                                                                
00002569  RF_postCmd                                                                
20002a78  RF_prop                                                                   
20002a88  RF_prop_fsk                                                               
20002a98  RF_prop_hsm                                                               
20002aa8  RF_prop_lrm                                                               
20002ab8  RF_prop_ook                                                               
000079f9  RF_runCmd                                                                 
00007a89  ResetISR                                                                  
UNDEFED   SHT$$INIT_ARRAY$$Base                                                     
UNDEFED   SHT$$INIT_ARRAY$$Limit                                                    
000085f1  SafeHapiVoid                                                              
00007565  SceAdc_init                                                               
00008e7d  SceAdc_registerAdcCallback                                                
000086ad  SceAdc_setReportInterval                                                  
000091f7  SceAdc_start                                                              
00000000  __ASM__                                                                   
20001408  __CIOBUF_                                                                 
0000005c  __ISA__                                                                   
0000006e  __PLAT__                                                                  
20005000  __STACK_END                                                               
00000300  __STACK_SIZE                                                              
00000095  __TARG__                                                                  
00000408  __TI_CINIT_Base                                                           
00000468  __TI_CINIT_Limit                                                          
000003c4  __TI_Handler_Table_Base                                                   
000003d0  __TI_Handler_Table_Limit                                                  
00005a31  __TI_auto_init                                                            
00006c4d  __TI_decompress_lzss                                                      
00009073  __TI_decompress_none                                                      
ffffffff  __TI_pprof_out_hndl                                                       
ffffffff  __TI_prof_data_size                                                       
ffffffff  __TI_prof_data_start                                                      
00007fa5  __TI_readmsg                                                              
00000040  __TI_static_base__                                                        
00007d8d  __TI_writemsg                                                             
00009149  __TI_zero_init                                                            
000000ba  __TRDR__                                                                  
00007b11  __aeabi_d2uiz                                                             
00003771  __aeabi_ddiv                                                              
00008837  __aeabi_idiv0                                                             
00008837  __aeabi_ldiv0                                                             
00008cad  __aeabi_lmul                                                              
00006475  __aeabi_memclr                                                            
00006475  __aeabi_memclr4                                                           
00006475  __aeabi_memclr8                                                           
00005c0d  __aeabi_memcpy                                                            
00005c0d  __aeabi_memcpy4                                                           
00005c0d  __aeabi_memcpy8                                                           
00006477  __aeabi_memset                                                            
00006477  __aeabi_memset4                                                           
00006477  __aeabi_memset8                                                           
000088f9  __aeabi_ui2d                                                              
00007c21  __aeabi_uidiv                                                             
00007c21  __aeabi_uidivmod                                                          
00005dd9  __aeabi_uldivmod                                                          
ffffffff  __binit__                                                                 
ffffffff  __c_args__                                                                
0001ffa8  __ccfg                                                                    
20004d00  __stack                                                                   
00008c7d  _args_main                                                                
00007a89  _c_int00                                                                  
20002af0  _lock                                                                     
000038a7  _nop                                                                      
00009131  _register_lock                                                            
0000913d  _register_unlock                                                          
20002af4  _unlock                                                                   
000086d1  adcCallback                                                               
ffffffff  binit                                                                     
00007fd9  buttonCallback                                                            
20002b00  buttonPinTable                                                            
0000788d  copy_in                                                                   
200022c0  driverlib_release_0_47020                                                 
00009015  fastReportTimeoutCallback                                                 
20001fa8  fastReportTimeoutClock                                                    
00005139  fetchSensorData                                                           
20002b08  gptPinTable                                                               
20001528  gptimerCC26XXObjects                                                      
0000cbf4  gptimerCC26xxHWAttrs                                                      
20002298  hTimer                                                                    
2000229c  i2c                                                                       
0000cdb0  i2cCC26xxHWAttrs                                                          
20001748  i2cCC26xxObjects                                                          
2000221c  i2cParams                                                                 
200020b0  i2cTransaction                                                            
200028f0  intervalBuf                                                               
20002af9  intervalBufIndex                                                          
00007acd  main                                                                      
20002b90  main_func_sp                                                              
00005c0d  memcpy                                                                    
0000647d  memset                                                                    
200021b0  nodeEvent                                                                 
20001d04  nodeRadioTask                                                             
20001d54  nodeTask                                                                  
20002b10  outputPinTable                                                            
20002638  pOverrides_fsk                                                            
200024c8  pOverrides_hsm                                                            
20002528  pOverrides_lrm                                                            
20002584  pOverrides_ook                                                            
20002280  parmbuf                                                                   
20002b18  pinTable                                                                  
200020cc  radioAccessSem                                                            
200021d8  radioOperationEvent                                                       
200020e8  radioResultSem                                                            
00008f09  readRawHumidity                                                           
00008f1b  readRawPressure                                                           
00008f2d  readRawTemperature                                                        
0000cc54  resourceDB                                                                
0000800d  scifAckAlertEvents                                                        
00008cc5  scifClearAlertIntSource                                                   
0000cd10  scifDriverSetup                                                           
00009161  scifGetAlertEvents                                                        
00006819  scifGetTaskStruct                                                         
000043ed  scifInit                                                                  
0000625d  scifInitIo                                                                
0000926d  scifOsalEnterCriticalSection                                              
00008761  scifOsalInit                                                              
0000916d  scifOsalLeaveCriticalSection                                              
00008ea5  scifOsalRegisterCtrlReadyCallback                                         
00008eb9  scifOsalRegisterTaskAlertCallback                                         
000074b5  scifReinitIo                                                              
00007b55  scifStartRtcTicks                                                         
00007c61  scifStartRtcTicksNow                                                      
00008f3f  scifStartTasksNbl                                                         
0000750d  scifUninitIo                                                              
20000a08  sensorTaskStack                                                           
20001da4  sensorTaskStruct                                                          
20002a1c  shapeovr                                                                  
00008ecd  strlen                                                                    
200001a4  ti_sysbios_BIOS_Module__state__V                                          
1001bc25  ti_sysbios_BIOS_RtsGateProxy_Handle__label__S                             
1001bc25  ti_sysbios_BIOS_RtsGateProxy_Handle__label__S__mangled__                  
1001bab5  ti_sysbios_BIOS_RtsGateProxy_Object__delete__S                            
1001bab5  ti_sysbios_BIOS_RtsGateProxy_Object__delete__S__mangled__                 
1001c175  ti_sysbios_BIOS_RtsGateProxy_Params__init__S                              
1001c175  ti_sysbios_BIOS_RtsGateProxy_Params__init__S__mangled__                   
1001c245  ti_sysbios_BIOS_RtsGateProxy_enter__E                                     
1001c249  ti_sysbios_BIOS_RtsGateProxy_leave__E                                     
1001c271  ti_sysbios_BIOS_RtsGateProxy_query__E                                     
1001c271  ti_sysbios_BIOS_RtsGateProxy_query__E__mangled__                          
00008229  ti_sysbios_BIOS_atExitFunc__I                                             
00008d3b  ti_sysbios_BIOS_exitFunc__I                                               
1001c031  ti_sysbios_BIOS_exit__E                                                   
1001bff5  ti_sysbios_BIOS_getCpuFreq__E                                             
00008e17  ti_sysbios_BIOS_linkedWithIncorrectBootLibrary__E                         
000092bb  ti_sysbios_BIOS_nullFunc__I                                               
00008785  ti_sysbios_BIOS_registerRTSLock__I                                        
000087a9  ti_sysbios_BIOS_removeRTSLock__I                                          
00008919  ti_sysbios_BIOS_rtsLock__I                                                
00008cf5  ti_sysbios_BIOS_rtsUnlock__I                                              
1001c041  ti_sysbios_BIOS_setThreadType__E                                          
00008259  ti_sysbios_BIOS_startFunc__I                                              
1001c051  ti_sysbios_BIOS_start__E                                                  
000058e5  ti_sysbios_family_arm_cc26xx_Boot_trimDevice                              
00001406  ti_sysbios_family_arm_cc26xx_Timer_Module__id__C                          
1001bb45  ti_sysbios_family_arm_cc26xx_Timer_Module__startupDone__S                 
200001e4  ti_sysbios_family_arm_cc26xx_Timer_Module__state__V                       
1001ba6d  ti_sysbios_family_arm_cc26xx_Timer_Module_startup__E                      
200026e0  ti_sysbios_family_arm_cc26xx_Timer_Object__table__V                       
00008939  ti_sysbios_family_arm_cc26xx_Timer_dynamicStub__E                         
000092af  ti_sysbios_family_arm_cc26xx_Timer_getCount64__E                          
00007dc5  ti_sysbios_family_arm_cc26xx_Timer_getCurrentTick__E                      
1001c24d  ti_sysbios_family_arm_cc26xx_Timer_getExpiredTicks__E                     
000087cd  ti_sysbios_family_arm_cc26xx_Timer_getMaxTicks__E                         
1001c251  ti_sysbios_family_arm_cc26xx_Timer_getPeriod__E                           
00008075  ti_sysbios_family_arm_cc26xx_Timer_initDevice__I                          
1001a465  ti_sysbios_family_arm_cc26xx_Timer_periodicStub__E                        
1001b765  ti_sysbios_family_arm_cc26xx_Timer_postInit__I                            
00007e35  ti_sysbios_family_arm_cc26xx_Timer_setNextTick__E                         
1001c255  ti_sysbios_family_arm_cc26xx_Timer_setPeriod__E                           
00008289  ti_sysbios_family_arm_cc26xx_Timer_setThreshold__I                        
00006735  ti_sysbios_family_arm_cc26xx_Timer_start__E                               
00001384  ti_sysbios_family_arm_cc26xx_Timer_startupNeeded__C                       
1001b791  ti_sysbios_family_arm_cc26xx_Timer_startup__E                             
200001ec  ti_sysbios_family_arm_cc26xx_TimestampProvider_Module__state__V           
1001bb65  ti_sysbios_family_arm_cc26xx_TimestampProvider_Module_startup__E          
000090ab  ti_sysbios_family_arm_cc26xx_TimestampProvider_get32__E                   
1001b9cd  ti_sysbios_family_arm_cc26xx_TimestampProvider_get64__E                   
1001c12b  ti_sysbios_family_arm_cc26xx_TimestampProvider_getFreq__E                 
00001408  ti_sysbios_family_arm_cc26xx_TimestampProvider_useClockTimer__C           
00001388  ti_sysbios_family_arm_m3_Hwi_E_alreadyDefined__C                          
0000138c  ti_sysbios_family_arm_m3_Hwi_E_hwiLimitExceeded__C                        
1001aed1  ti_sysbios_family_arm_m3_Hwi_Instance_finalize__E                         
1001a3c5  ti_sysbios_family_arm_m3_Hwi_Instance_init__E                             
20002ba0  ti_sysbios_family_arm_m3_Hwi_Module_State_0_excActive__A                  
20002b94  ti_sysbios_family_arm_m3_Hwi_Module_State_0_excContext__A                 
20002b98  ti_sysbios_family_arm_m3_Hwi_Module_State_0_excStack__A                   
0000140a  ti_sysbios_family_arm_m3_Hwi_Module__id__C                                
20002b20  ti_sysbios_family_arm_m3_Hwi_Module__root__V                              
1001bb85  ti_sysbios_family_arm_m3_Hwi_Module__startupDone__S                       
20000144  ti_sysbios_family_arm_m3_Hwi_Module__state__V                             
1001b1c1  ti_sysbios_family_arm_m3_Hwi_Module_startup__E                            
00001390  ti_sysbios_family_arm_m3_Hwi_NUM_INTERRUPTS__C                            
000011d0  ti_sysbios_family_arm_m3_Hwi_Object__DESC__C                              
00001070  ti_sysbios_family_arm_m3_Hwi_Object__PARAMS__C                            
00001394  ti_sysbios_family_arm_m3_Hwi_Object__count__C                             
1001aab1  ti_sysbios_family_arm_m3_Hwi_Object__create__S                            
1001bba5  ti_sysbios_family_arm_m3_Hwi_Object__delete__S                            
1001be65  ti_sysbios_family_arm_m3_Hwi_Object__destruct__S                          
1001b7bd  ti_sysbios_family_arm_m3_Hwi_Object__get__S                               
00001398  ti_sysbios_family_arm_m3_Hwi_Object__table__C                             
20002a34  ti_sysbios_family_arm_m3_Hwi_Object__table__V                             
1001c139  ti_sysbios_family_arm_m3_Hwi_Params__init__S                              
0000139c  ti_sysbios_family_arm_m3_Hwi_ccr__C                                       
00008ad5  ti_sysbios_family_arm_m3_Hwi_clearInterrupt__E                            
1001af29  ti_sysbios_family_arm_m3_Hwi_construct                                    
1001ab15  ti_sysbios_family_arm_m3_Hwi_create                                       
1001c259  ti_sysbios_family_arm_m3_Hwi_delete                                       
1001c25d  ti_sysbios_family_arm_m3_Hwi_destruct                                     
1001c145  ti_sysbios_family_arm_m3_Hwi_disableFxn__E                                
1001b251  ti_sysbios_family_arm_m3_Hwi_disableInterrupt__E                          
1001aa49  ti_sysbios_family_arm_m3_Hwi_dispatchC__I                                 
20001828  ti_sysbios_family_arm_m3_Hwi_dispatchTable                                
1001c899  ti_sysbios_family_arm_m3_Hwi_dispatch__I                                  
1001c1f7  ti_sysbios_family_arm_m3_Hwi_doSwiRestore__I                              
1001c20f  ti_sysbios_family_arm_m3_Hwi_doTaskRestore__I                             
1001c151  ti_sysbios_family_arm_m3_Hwi_enableFxn__E                                 
1001b295  ti_sysbios_family_arm_m3_Hwi_enableInterrupt__E                           
1001c9fd  ti_sysbios_family_arm_m3_Hwi_excHandlerAsm__I                             
000013a0  ti_sysbios_family_arm_m3_Hwi_excHandlerFunc__C                            
1001bbc5  ti_sysbios_family_arm_m3_Hwi_excHandler__I                                
1001b461  ti_sysbios_family_arm_m3_Hwi_getStackInfo__E                              
1001a695  ti_sysbios_family_arm_m3_Hwi_initNVIC__E                                  
1001c9b5  ti_sysbios_family_arm_m3_Hwi_initStacks__E                                
000013a4  ti_sysbios_family_arm_m3_Hwi_nullIsrFunc__C                               
000013a8  ti_sysbios_family_arm_m3_Hwi_numSparseInterrupts__C                       
e000e000  ti_sysbios_family_arm_m3_Hwi_nvic                                         
1001ca3b  ti_sysbios_family_arm_m3_Hwi_pendSV__I                                    
1001c061  ti_sysbios_family_arm_m3_Hwi_plug__E                                      
1001a315  ti_sysbios_family_arm_m3_Hwi_postInit__I                                  
00009035  ti_sysbios_family_arm_m3_Hwi_post__E                                      
000013ac  ti_sysbios_family_arm_m3_Hwi_priGroup__C                                  
20000000  ti_sysbios_family_arm_m3_Hwi_ramVectors                                   
00000000  ti_sysbios_family_arm_m3_Hwi_resetVectors                                 
1001c215  ti_sysbios_family_arm_m3_Hwi_restoreFxn__E                                
1001ca53  ti_sysbios_family_arm_m3_Hwi_return                                       
00009295  ti_sysbios_family_arm_m3_Hwi_setFunc__E                                   
1001be81  ti_sysbios_family_arm_m3_Hwi_setPriority__E                               
1001c1ff  ti_sysbios_family_arm_m3_Hwi_startup__E                                   
1001c009  ti_sysbios_family_arm_m3_Hwi_switchFromBootStack__E                       
1001c261  ti_sysbios_family_arm_m3_TaskSupport_Module__startupDone__S               
1001c969  ti_sysbios_family_arm_m3_TaskSupport_buildTaskStack                       
1001c15d  ti_sysbios_family_arm_m3_TaskSupport_getStackAlignment__E                 
1001ca55  ti_sysbios_family_arm_m3_TaskSupport_glue                                 
000013b0  ti_sysbios_family_arm_m3_TaskSupport_stackAlignment__C                    
1001b499  ti_sysbios_family_arm_m3_TaskSupport_start__E                             
1001ca65  ti_sysbios_family_arm_m3_TaskSupport_swap__E                              
1001ca1d  ti_sysbios_family_xxx_Hwi_switchAndRunFunc                                
1001bbe5  ti_sysbios_gates_GateHwi_Handle__label__S                                 
1001b45f  ti_sysbios_gates_GateHwi_Instance_init__E                                 
0000111c  ti_sysbios_gates_GateHwi_Module__FXNS__C                                  
0000140c  ti_sysbios_gates_GateHwi_Module__id__C                                    
20002b28  ti_sysbios_gates_GateHwi_Module__root__V                                  
000011f0  ti_sysbios_gates_GateHwi_Object__DESC__C                                  
00001330  ti_sysbios_gates_GateHwi_Object__PARAMS__C                                
1001ba91  ti_sysbios_gates_GateHwi_Object__create__S                                
1001bc05  ti_sysbios_gates_GateHwi_Object__delete__S                                
1001c169  ti_sysbios_gates_GateHwi_enter__E                                         
1001c21b  ti_sysbios_gates_GateHwi_leave__E                                         
1001c265  ti_sysbios_gates_GateHwi_query__E                                         
1001bc25  ti_sysbios_gates_GateMutex_Handle__label__S                               
000014d0  ti_sysbios_gates_GateMutex_Instance_State_sem__O                          
1001c071  ti_sysbios_gates_GateMutex_Instance_finalize__E                           
1001be9d  ti_sysbios_gates_GateMutex_Instance_init__E                               
00001140  ti_sysbios_gates_GateMutex_Module__FXNS__C                                
0000140e  ti_sysbios_gates_GateMutex_Module__id__C                                  
20002b30  ti_sysbios_gates_GateMutex_Module__root__V                                
00001210  ti_sysbios_gates_GateMutex_Object__DESC__C                                
00001348  ti_sysbios_gates_GateMutex_Object__PARAMS__C                              
1001b645  ti_sysbios_gates_GateMutex_Object__create__S                              
1001bab5  ti_sysbios_gates_GateMutex_Object__delete__S                              
1001bc45  ti_sysbios_gates_GateMutex_Object__destruct__S                            
20002764  ti_sysbios_gates_GateMutex_Object__table__V                               
1001c175  ti_sysbios_gates_GateMutex_Params__init__S                                
1001b7e9  ti_sysbios_gates_GateMutex_construct                                      
1001b675  ti_sysbios_gates_GateMutex_create                                         
1001c269  ti_sysbios_gates_GateMutex_delete                                         
1001c26d  ti_sysbios_gates_GateMutex_destruct                                       
1001b6a5  ti_sysbios_gates_GateMutex_enter__E                                       
1001bf99  ti_sysbios_gates_GateMutex_leave__E                                       
1001c271  ti_sysbios_gates_GateMutex_query__E                                       
1001c275  ti_sysbios_hal_Hwi_HwiProxy_Module__startupDone__S                        
1001bb85  ti_sysbios_hal_Hwi_HwiProxy_Module__startupDone__S__mangled__             
1001c081  ti_sysbios_hal_Hwi_HwiProxy_Object__create__S                             
1001bba5  ti_sysbios_hal_Hwi_HwiProxy_Object__delete__S                             
1001bba5  ti_sysbios_hal_Hwi_HwiProxy_Object__delete__S__mangled__                  
1001c139  ti_sysbios_hal_Hwi_HwiProxy_Params__init__S                               
1001c139  ti_sysbios_hal_Hwi_HwiProxy_Params__init__S__mangled__                    
00008ad5  ti_sysbios_hal_Hwi_HwiProxy_clearInterrupt__E                             
1001be45  ti_sysbios_hal_Hwi_HwiProxy_create                                        
1001c279  ti_sysbios_hal_Hwi_HwiProxy_delete                                        
1001c27d  ti_sysbios_hal_Hwi_HwiProxy_disableInterrupt__E                           
1001b251  ti_sysbios_hal_Hwi_HwiProxy_disableInterrupt__E__mangled__                
1001c281  ti_sysbios_hal_Hwi_HwiProxy_enableInterrupt__E                            
1001b295  ti_sysbios_hal_Hwi_HwiProxy_enableInterrupt__E__mangled__                 
1001c285  ti_sysbios_hal_Hwi_HwiProxy_getStackInfo__E                               
1001b461  ti_sysbios_hal_Hwi_HwiProxy_getStackInfo__E__mangled__                    
00009035  ti_sysbios_hal_Hwi_HwiProxy_post__E                                       
1001c289  ti_sysbios_hal_Hwi_HwiProxy_startup__E                                    
1001c1ff  ti_sysbios_hal_Hwi_HwiProxy_startup__E__mangled__                         
1001c28d  ti_sysbios_hal_Hwi_HwiProxy_switchFromBootStack__E                        
1001c009  ti_sysbios_hal_Hwi_HwiProxy_switchFromBootStack__E__mangled__             
1001c1ed  ti_sysbios_hal_Hwi_Instance_finalize__E                                   
1001b9f5  ti_sysbios_hal_Hwi_Instance_init__E                                       
20002b38  ti_sysbios_hal_Hwi_Module__root__V                                        
1001c01d  ti_sysbios_hal_Hwi_Module_startup__E                                      
00001230  ti_sysbios_hal_Hwi_Object__DESC__C                                        
000010a0  ti_sysbios_hal_Hwi_Object__PARAMS__C                                      
1001bc65  ti_sysbios_hal_Hwi_Object__delete__S                                      
00008ad5  ti_sysbios_hal_Hwi_clearInterrupt__E                                      
1001ab79  ti_sysbios_hal_Hwi_create                                                 
1001c291  ti_sysbios_hal_Hwi_delete                                                 
1001c27d  ti_sysbios_hal_Hwi_disableInterrupt__E                                    
1001c27d  ti_sysbios_hal_Hwi_disableInterrupt__E                                    
1001c281  ti_sysbios_hal_Hwi_enableInterrupt__E                                     
1001c281  ti_sysbios_hal_Hwi_enableInterrupt__E                                     
1001c285  ti_sysbios_hal_Hwi_getStackInfo__E                                        
1001c285  ti_sysbios_hal_Hwi_getStackInfo__E                                        
1001b815  ti_sysbios_hal_Hwi_initStack                                              
00009035  ti_sysbios_hal_Hwi_post__E                                                
1001c289  ti_sysbios_hal_Hwi_startup__E                                             
1001c289  ti_sysbios_hal_Hwi_startup__E                                             
1001c295  ti_sysbios_hal_Hwi_switchFromBootStack__E                                 
1001c295  ti_sysbios_hal_Hwi_switchFromBootStack__E                                 
000013b4  ti_sysbios_heaps_HeapMem_E_memory__C                                      
1001bc85  ti_sysbios_heaps_HeapMem_Handle__label__S                                 
20000e08  ti_sysbios_heaps_HeapMem_Instance_State_0_buf__A                          
1001b4d1  ti_sysbios_heaps_HeapMem_Instance_init__E                                 
1001bc25  ti_sysbios_heaps_HeapMem_Module_GateProxy_Handle__label__S                
1001bc25  ti_sysbios_heaps_HeapMem_Module_GateProxy_Handle__label__S__mangled__     
1001bab5  ti_sysbios_heaps_HeapMem_Module_GateProxy_Object__delete__S               
1001bab5  ti_sysbios_heaps_HeapMem_Module_GateProxy_Object__delete__S__mangled__    
1001c175  ti_sysbios_heaps_HeapMem_Module_GateProxy_Params__init__S                 
1001c175  ti_sysbios_heaps_HeapMem_Module_GateProxy_Params__init__S__mangled__      
1001c299  ti_sysbios_heaps_HeapMem_Module_GateProxy_enter__E                        
1001c29d  ti_sysbios_heaps_HeapMem_Module_GateProxy_leave__E                        
1001c271  ti_sysbios_heaps_HeapMem_Module_GateProxy_query__E                        
1001c271  ti_sysbios_heaps_HeapMem_Module_GateProxy_query__E__mangled__             
000010cc  ti_sysbios_heaps_HeapMem_Module__FXNS__C                                  
000013b8  ti_sysbios_heaps_HeapMem_Module__gateObj__C                               
00001410  ti_sysbios_heaps_HeapMem_Module__id__C                                    
20002b40  ti_sysbios_heaps_HeapMem_Module__root__V                                  
00001250  ti_sysbios_heaps_HeapMem_Object__DESC__C                                  
00001164  ti_sysbios_heaps_HeapMem_Object__PARAMS__C                                
000013bc  ti_sysbios_heaps_HeapMem_Object__count__C                                 
1001b841  ti_sysbios_heaps_HeapMem_Object__create__S                                
1001bca5  ti_sysbios_heaps_HeapMem_Object__delete__S                                
1001b86d  ti_sysbios_heaps_HeapMem_Object__get__S                                   
000013c0  ti_sysbios_heaps_HeapMem_Object__table__C                                 
20002a4c  ti_sysbios_heaps_HeapMem_Object__table__V                                 
1001a195  ti_sysbios_heaps_HeapMem_alloc__E                                         
1001a791  ti_sysbios_heaps_HeapMem_free__E                                          
1001b209  ti_sysbios_heaps_HeapMem_getStats__E                                      
1001b541  ti_sysbios_heaps_HeapMem_init__I                                          
1001c2a1  ti_sysbios_heaps_HeapMem_isBlocking__E                                    
000013c4  ti_sysbios_heaps_HeapMem_reqAlign__C                                      
1001c101  ti_sysbios_heaps_HeapMem_restore__E                                       
1001bfc9  ti_sysbios_knl_Clock_Instance_finalize__E                                 
1001b509  ti_sysbios_knl_Clock_Instance_init__E                                     
000014d4  ti_sysbios_knl_Clock_Module_State_clockQ__O                               
20002b48  ti_sysbios_knl_Clock_Module__root__V                                      
20000178  ti_sysbios_knl_Clock_Module__state__V                                     
1001bcc5  ti_sysbios_knl_Clock_Module_startup__E                                    
00001270  ti_sysbios_knl_Clock_Object__DESC__C                                      
00001188  ti_sysbios_knl_Clock_Object__PARAMS__C                                    
1001bad9  ti_sysbios_knl_Clock_Object__delete__S                                    
1001bce5  ti_sysbios_knl_Clock_Object__destruct__S                                  
20002910  ti_sysbios_knl_Clock_Object__table__V                                     
1001c181  ti_sysbios_knl_Clock_Params__init__S                                      
1001c2a5  ti_sysbios_knl_Clock_TimerProxy_Module__startupDone__S                    
1001bb45  ti_sysbios_knl_Clock_TimerProxy_Module__startupDone__S__mangled__         
1001c091  ti_sysbios_knl_Clock_TimerProxy_getCurrentTick__E                         
1001c2a9  ti_sysbios_knl_Clock_TimerProxy_getExpiredTicks__E                        
1001c0a1  ti_sysbios_knl_Clock_TimerProxy_getMaxTicks__E                            
1001c2ad  ti_sysbios_knl_Clock_TimerProxy_getPeriod__E                              
1001c0b1  ti_sysbios_knl_Clock_TimerProxy_setNextTick__E                            
1001b791  ti_sysbios_knl_Clock_TimerProxy_startup__E                                
1001b791  ti_sysbios_knl_Clock_TimerProxy_startup__E__mangled__                     
1001ba1d  ti_sysbios_knl_Clock_addI__E                                              
1001b575  ti_sysbios_knl_Clock_construct                                            
1001b3e9  ti_sysbios_knl_Clock_create                                               
1001c2b1  ti_sysbios_knl_Clock_delete                                               
1001c2b5  ti_sysbios_knl_Clock_destruct                                             
00008ee1  ti_sysbios_knl_Clock_doTick__I                                            
00008479  ti_sysbios_knl_Clock_getTicksUntilInterrupt__E                            
1001b6d5  ti_sysbios_knl_Clock_getTicks__E                                          
1001c18d  ti_sysbios_knl_Clock_getTimerHandle__E                                    
1001be63  ti_sysbios_knl_Clock_logTick__E                                           
1001c2b9  ti_sysbios_knl_Clock_removeI__E                                           
1001beb9  ti_sysbios_knl_Clock_scheduleNextTick__E                                  
000013c8  ti_sysbios_knl_Clock_serviceMargin__C                                     
1001c2bd  ti_sysbios_knl_Clock_setTimeout__E                                        
1001a715  ti_sysbios_knl_Clock_startI__E                                            
1001bfdf  ti_sysbios_knl_Clock_start__E                                             
00008959  ti_sysbios_knl_Clock_stop__E                                              
00001414  ti_sysbios_knl_Clock_tickMode__C                                          
0000ce70  ti_sysbios_knl_Clock_tickPeriod__C                                        
0000ce74  ti_sysbios_knl_Clock_triggerClock__C                                      
000092bd  ti_sysbios_knl_Clock_triggerFunc__I                                       
1001a809  ti_sysbios_knl_Clock_walkQueueDynamic__E                                  
00005d41  ti_sysbios_knl_Clock_workFuncDynamic__E                                   
1001a881  ti_sysbios_knl_Clock_workFunc__E                                          
0000ce78  ti_sysbios_knl_Event_Instance_State_pendQ__O                              
00008ef5  ti_sysbios_knl_Event_Instance_init__E                                     
20002b50  ti_sysbios_knl_Event_Module__root__V                                      
0000cd78  ti_sysbios_knl_Event_Object__DESC__C                                      
0000cdc8  ti_sysbios_knl_Event_Object__PARAMS__C                                    
00009185  ti_sysbios_knl_Event_Params__init__S                                      
00008979  ti_sysbios_knl_Event_checkEvents__I                                       
000084a5  ti_sysbios_knl_Event_construct                                            
000084d1  ti_sysbios_knl_Event_pendTimeout__I                                       
000048b5  ti_sysbios_knl_Event_pend__E                                              
00006889  ti_sysbios_knl_Event_post__E                                              
0000ce7c  ti_sysbios_knl_Idle_funcList__A                                           
00001378  ti_sysbios_knl_Idle_funcList__C                                           
1001c207  ti_sysbios_knl_Idle_loop__E                                               
1001bd05  ti_sysbios_knl_Idle_run__E                                                
000014d8  ti_sysbios_knl_Mailbox_Instance_State_dataQue__O                          
000014dc  ti_sysbios_knl_Mailbox_Instance_State_dataSem__O                          
000014e0  ti_sysbios_knl_Mailbox_Instance_State_freeQue__O                          
000014e4  ti_sysbios_knl_Mailbox_Instance_State_freeSem__O                          
1001a8f9  ti_sysbios_knl_Mailbox_Instance_finalize__E                               
1001a0cd  ti_sysbios_knl_Mailbox_Instance_init__E                                   
20002b58  ti_sysbios_knl_Mailbox_Module__root__V                                    
1001b2d9  ti_sysbios_knl_Mailbox_Module_startup__E                                  
00001290  ti_sysbios_knl_Mailbox_Object__DESC__C                                    
0000103c  ti_sysbios_knl_Mailbox_Object__PARAMS__C                                  
000013cc  ti_sysbios_knl_Mailbox_Object__count__C                                   
1001bd25  ti_sysbios_knl_Mailbox_Object__delete__S                                  
1001bed5  ti_sysbios_knl_Mailbox_Object__destruct__S                                
1001b899  ti_sysbios_knl_Mailbox_Object__get__S                                     
000013d0  ti_sysbios_knl_Mailbox_Object__table__C                                   
1001c199  ti_sysbios_knl_Mailbox_Params__init__S                                    
1001af81  ti_sysbios_knl_Mailbox_construct                                          
1001abdd  ti_sysbios_knl_Mailbox_create                                             
1001c2c1  ti_sysbios_knl_Mailbox_delete                                             
1001c2c5  ti_sysbios_knl_Mailbox_destruct                                           
000013d4  ti_sysbios_knl_Mailbox_maxTypeAlign__C                                    
1001a969  ti_sysbios_knl_Mailbox_pend__E                                            
1001b8c5  ti_sysbios_knl_Mailbox_postInit__I                                        
1001a58d  ti_sysbios_knl_Mailbox_post__E                                            
1001c227  ti_sysbios_knl_Queue_Instance_init__E                                     
20002b60  ti_sysbios_knl_Queue_Module__root__V                                      
000012b0  ti_sysbios_knl_Queue_Object__DESC__C                                      
00001360  ti_sysbios_knl_Queue_Object__PARAMS__C                                    
000013d8  ti_sysbios_knl_Queue_Object__count__C                                     
1001bd45  ti_sysbios_knl_Queue_Object__delete__S                                    
1001bef1  ti_sysbios_knl_Queue_Object__destruct__S                                  
1001bd65  ti_sysbios_knl_Queue_Object__get__S                                       
000013dc  ti_sysbios_knl_Queue_Object__table__C                                     
1001b8f1  ti_sysbios_knl_Queue_construct                                            
1001b91d  ti_sysbios_knl_Queue_create                                               
1001c2c9  ti_sysbios_knl_Queue_delete                                               
1001c1a5  ti_sysbios_knl_Queue_dequeue__E                                           
1001c2cd  ti_sysbios_knl_Queue_destruct                                             
1001c22d  ti_sysbios_knl_Queue_elemClear__E                                         
1001c10f  ti_sysbios_knl_Queue_empty__E                                             
1001c1b1  ti_sysbios_knl_Queue_enqueue__E                                           
1001bf0d  ti_sysbios_knl_Queue_get__E                                               
1001c2d1  ti_sysbios_knl_Queue_head__E                                              
1001c2d5  ti_sysbios_knl_Queue_next__E                                              
1001bf29  ti_sysbios_knl_Queue_put__E                                               
1001c11d  ti_sysbios_knl_Queue_remove__E                                            
000014e8  ti_sysbios_knl_Semaphore_Instance_State_pendQ__O                          
1001c0c1  ti_sysbios_knl_Semaphore_Instance_finalize__E                             
1001bafd  ti_sysbios_knl_Semaphore_Instance_init__E                                 
20002b68  ti_sysbios_knl_Semaphore_Module__root__V                                  
000012d0  ti_sysbios_knl_Semaphore_Object__DESC__C                                  
000011ac  ti_sysbios_knl_Semaphore_Object__PARAMS__C                                
1001bb21  ti_sysbios_knl_Semaphore_Object__delete__S                                
1001bd85  ti_sysbios_knl_Semaphore_Object__destruct__S                              
1001c1bd  ti_sysbios_knl_Semaphore_Params__init__S                                  
1001b705  ti_sysbios_knl_Semaphore_construct                                        
1001b5a9  ti_sysbios_knl_Semaphore_create                                           
1001c2d9  ti_sysbios_knl_Semaphore_delete                                           
1001c2dd  ti_sysbios_knl_Semaphore_destruct                                         
1001b949  ti_sysbios_knl_Semaphore_pendTimeout__I                                   
1001a001  ti_sysbios_knl_Semaphore_pend__E                                          
1001ac41  ti_sysbios_knl_Semaphore_post__E                                          
1001bf97  ti_sysbios_knl_Swi_Instance_finalize__E                                   
1001aca5  ti_sysbios_knl_Swi_Instance_init__E                                       
200027cc  ti_sysbios_knl_Swi_Module_State_0_readyQ__A                               
20002b70  ti_sysbios_knl_Swi_Module__root__V                                        
200001c8  ti_sysbios_knl_Swi_Module__state__V                                       
1001c233  ti_sysbios_knl_Swi_Module_startup__E                                      
000012f0  ti_sysbios_knl_Swi_Object__DESC__C                                        
000010f4  ti_sysbios_knl_Swi_Object__PARAMS__C                                      
000013e0  ti_sysbios_knl_Swi_Object__count__C                                       
1001bda5  ti_sysbios_knl_Swi_Object__delete__S                                      
1001bf45  ti_sysbios_knl_Swi_Object__destruct__S                                    
1001b975  ti_sysbios_knl_Swi_Object__get__S                                         
000013e4  ti_sysbios_knl_Swi_Object__table__C                                       
200027fc  ti_sysbios_knl_Swi_Object__table__V                                       
1001c1c9  ti_sysbios_knl_Swi_Params__init__S                                        
1001b085  ti_sysbios_knl_Swi_construct                                              
1001ad05  ti_sysbios_knl_Swi_create                                                 
1001c2e1  ti_sysbios_knl_Swi_delete                                                 
1001c2e5  ti_sysbios_knl_Swi_destruct                                               
1001c0d1  ti_sysbios_knl_Swi_disable__E                                             
1001c0e1  ti_sysbios_knl_Swi_enabled__E                                             
000091c1  ti_sysbios_knl_Swi_getTrigger__E                                          
000013e8  ti_sysbios_knl_Swi_numPriorities__C                                       
00008d0d  ti_sysbios_knl_Swi_or__E                                                  
1001c2e9  ti_sysbios_knl_Swi_postInit__I                                            
1001b31d  ti_sysbios_knl_Swi_post__E                                                
1001ad61  ti_sysbios_knl_Swi_restoreHwi__E                                          
1001b5dd  ti_sysbios_knl_Swi_restore__E                                             
1001b0d5  ti_sysbios_knl_Swi_runLoop__I                                             
1001afd9  ti_sysbios_knl_Swi_run__I                                                 
1001b031  ti_sysbios_knl_Swi_schedule__I                                            
1001c239  ti_sysbios_knl_Swi_startup__E                                             
20001208  ti_sysbios_knl_Task_Instance_State_0_stack__A                             
1001a4f9  ti_sysbios_knl_Task_Instance_finalize__E                                  
1001a259  ti_sysbios_knl_Task_Instance_init__E                                      
20002b9c  ti_sysbios_knl_Task_Module_State_0_idleTask__A                            
20002930  ti_sysbios_knl_Task_Module_State_0_readyQ__A                              
000014ec  ti_sysbios_knl_Task_Module_State_inactiveQ__O                             
20002b78  ti_sysbios_knl_Task_Module__root__V                                       
20000100  ti_sysbios_knl_Task_Module__state__V                                      
1001adbd  ti_sysbios_knl_Task_Module_startup__E                                     
00001310  ti_sysbios_knl_Task_Object__DESC__C                                       
00001000  ti_sysbios_knl_Task_Object__PARAMS__C                                     
000013ec  ti_sysbios_knl_Task_Object__count__C                                      
1001bdc5  ti_sysbios_knl_Task_Object__delete__S                                     
1001bf61  ti_sysbios_knl_Task_Object__destruct__S                                   
1001bde5  ti_sysbios_knl_Task_Object__get__S                                        
000013f0  ti_sysbios_knl_Task_Object__table__C                                      
20002690  ti_sysbios_knl_Task_Object__table__V                                      
1001c1d5  ti_sysbios_knl_Task_Params__init__S                                       
1001c2ed  ti_sysbios_knl_Task_SupportProxy_Module__startupDone__S                   
1001c261  ti_sysbios_knl_Task_SupportProxy_Module__startupDone__S__mangled__        
1001c2f1  ti_sysbios_knl_Task_SupportProxy_getStackAlignment__E                     
1001c15d  ti_sysbios_knl_Task_SupportProxy_getStackAlignment__E__mangled__          
1001c2f5  ti_sysbios_knl_Task_SupportProxy_start__E                                 
1001b499  ti_sysbios_knl_Task_SupportProxy_start__E__mangled__                      
1001c2f9  ti_sysbios_knl_Task_SupportProxy_swap__E                                  
1001ca65  ti_sysbios_knl_Task_SupportProxy_swap__E__mangled__                       
000013f4  ti_sysbios_knl_Task_allBlockedFunc__C                                     
1001b361  ti_sysbios_knl_Task_allBlockedFunction__I                                 
1001b611  ti_sysbios_knl_Task_blockI__E                                             
1001b125  ti_sysbios_knl_Task_construct                                             
1001ae19  ti_sysbios_knl_Task_create                                                
000013f8  ti_sysbios_knl_Task_defaultStackHeap__C                                   
000013fc  ti_sysbios_knl_Task_defaultStackSize__C                                   
1001c2fd  ti_sysbios_knl_Task_delete                                                
1001c301  ti_sysbios_knl_Task_destruct                                              
1001c0f1  ti_sysbios_knl_Task_disable__E                                            
1001c23f  ti_sysbios_knl_Task_enable__E                                             
1001be05  ti_sysbios_knl_Task_enter__I                                              
1001b425  ti_sysbios_knl_Task_exit__E                                               
00001412  ti_sysbios_knl_Task_initStackFlag__C                                      
00001400  ti_sysbios_knl_Task_numConstructedTasks__C                                
1001a611  ti_sysbios_knl_Task_postInit__I                                           
1001b735  ti_sysbios_knl_Task_processVitalTaskFlag__I                               
1001be25  ti_sysbios_knl_Task_restoreHwi__E                                         
1001ba45  ti_sysbios_knl_Task_restore__E                                            
1001b175  ti_sysbios_knl_Task_schedule__I                                           
1001c1e1  ti_sysbios_knl_Task_self__E                                               
1001bf7d  ti_sysbios_knl_Task_sleepTimeout__I                                       
1001a9d9  ti_sysbios_knl_Task_sleep__E                                              
1001ae75  ti_sysbios_knl_Task_startCore__E                                          
1001c305  ti_sysbios_knl_Task_startup__E                                            
1001ca6d  ti_sysbios_knl_Task_swapReturn                                            
1001b9a1  ti_sysbios_knl_Task_unblockI__E                                           
1001bfb1  ti_sysbios_knl_Task_unblock__E                                            
1001b3a5  ti_sysbios_knl_Task_yield__E                                              
00001494  ti_sysbios_rom_ROM_AONRTCChannelEnable                                    
00001498  ti_sysbios_rom_ROM_AONRTCCompareValueSet                                  
0000149c  ti_sysbios_rom_ROM_AONRTCCurrentCompareValueGet                           
000014a0  ti_sysbios_rom_ROM_AONRTCEventClear                                       
000014a4  ti_sysbios_rom_ROM_ti_sysbios_family_arm_cc26xx_Timer_getCount64__E       
000014a8  ti_sysbios_rom_ROM_ti_sysbios_family_arm_cc26xx_Timer_getCurrentTick__E   
000014ac  ti_sysbios_rom_ROM_ti_sysbios_family_arm_cc26xx_Timer_getMaxTicks__E      
000014b0  ti_sysbios_rom_ROM_ti_sysbios_family_arm_cc26xx_Timer_initDevice__I       
000014b4  ti_sysbios_rom_ROM_ti_sysbios_family_arm_cc26xx_Timer_setNextTick__E      
000014b8  ti_sysbios_rom_ROM_ti_sysbios_family_arm_cc26xx_Timer_setThreshold__I     
000014bc  ti_sysbios_rom_ROM_ti_sysbios_family_arm_cc26xx_Timer_start__E            
000014c0  ti_sysbios_rom_ROM_ti_sysbios_family_arm_cc26xx_TimestampProvider_get32__E
000014c4  ti_sysbios_rom_ROM_xdc_runtime_Startup_getState__I                        
000014c8  ti_sysbios_rom_ROM_xdc_runtime_System_SupportProxy_abort__E               
000014cc  ti_sysbios_rom_ROM_xdc_runtime_System_SupportProxy_exit__E                
1001ca97  ti_sysbios_rom_cortexm_cc13xx_CC13xx_getRevision__E                       
20002950  timerBuf                                                                  
20002af8  timerBufIndex                                                             
000041d1  timerCallback                                                             
200022b4  timerPinHandle                                                            
00001428  xdc_runtime_Assert_E_assertFailed__C                                      
1001c5a5  xdc_runtime_Assert_raise__I                                               
1001c6e9  xdc_runtime_Core_assignLabel__I                                           
1001c5ed  xdc_runtime_Core_assignParams__I                                          
1001c635  xdc_runtime_Core_constructObject__I                                       
1001c401  xdc_runtime_Core_createObject__I                                          
1001c4f5  xdc_runtime_Core_deleteObject__I                                          
1001c79d  xdc_runtime_Core_destructObject__I                                        
0000142c  xdc_runtime_Error_E_memory__C                                             
1001c7b5  xdc_runtime_Error_check__E                                                
1001c83d  xdc_runtime_Error_init__E                                                 
00001430  xdc_runtime_Error_policyFxn__C                                            
1001c483  xdc_runtime_Error_policySpin__E                                           
00001490  xdc_runtime_Error_policy__C                                               
1001c765  xdc_runtime_Error_raiseX__E                                               
1001c881  xdc_runtime_Gate_enterSystem__E                                           
1001c875  xdc_runtime_Gate_leaveSystem__E                                           
00001434  xdc_runtime_IGateProvider_Interface__BASE__C                              
00001438  xdc_runtime_IHeap_Interface__BASE__C                                      
0000143c  xdc_runtime_IModule_Interface__BASE__C                                    
1001bbe5  xdc_runtime_Main_Module_GateProxy_Handle__label__S                        
1001bc05  xdc_runtime_Main_Module_GateProxy_Object__delete__S                       
1001c265  xdc_runtime_Main_Module_GateProxy_query__E                                
00001440  xdc_runtime_Main_Module__diagsEnabled__C                                  
00001444  xdc_runtime_Main_Module__diagsIncluded__C                                 
00001448  xdc_runtime_Main_Module__diagsMask__C                                     
00001488  xdc_runtime_Main_Module__id__C                                            
1001bc85  xdc_runtime_Memory_HeapProxy_Handle__label__S                             
1001bc85  xdc_runtime_Memory_HeapProxy_Handle__label__S__mangled__                  
1001bca5  xdc_runtime_Memory_HeapProxy_Object__delete__S                            
1001bca5  xdc_runtime_Memory_HeapProxy_Object__delete__S__mangled__                 
1001c885  xdc_runtime_Memory_HeapProxy_alloc__E                                     
1001c889  xdc_runtime_Memory_HeapProxy_free__E                                      
0000148a  xdc_runtime_Memory_Module__id__C                                          
20000200  xdc_runtime_Memory_Module__state__V                                       
1001c485  xdc_runtime_Memory_alloc__E                                               
1001c849  xdc_runtime_Memory_calloc__E                                              
0000144c  xdc_runtime_Memory_defaultHeapInstance__C                                 
1001c7fd  xdc_runtime_Memory_free__E                                                
1001c855  xdc_runtime_Memory_getMaxDefaultTypeAlign__E                              
1001c781  xdc_runtime_Memory_valloc__E                                              
20002b80  xdc_runtime_Registry_Module__state__V                                     
00008af1  xdc_runtime_Registry_findById__E                                          
200001f0  xdc_runtime_Startup_Module__state__V                                      
00000001  xdc_runtime_Startup__EXECFXN__C                                           
00000001  xdc_runtime_Startup__RESETFXN__C                                          
00001450  xdc_runtime_Startup_execImpl__C                                           
1001c555  xdc_runtime_Startup_exec__E                                               
00008f63  xdc_runtime_Startup_exec__I                                               
0000ce58  xdc_runtime_Startup_firstFxns__A                                          
00001418  xdc_runtime_Startup_firstFxns__C                                          
00007245  xdc_runtime_Startup_getState__I                                           
00001420  xdc_runtime_Startup_lastFxns__C                                           
00001454  xdc_runtime_Startup_maxPasses__C                                          
000092b3  xdc_runtime_Startup_reset__I                                              
000091cd  xdc_runtime_Startup_rtsDone__E                                            
0000cdf4  xdc_runtime_Startup_sfxnRts__A                                            
00001458  xdc_runtime_Startup_sfxnRts__C                                            
0000cce8  xdc_runtime_Startup_sfxnTab__A                                            
0000145c  xdc_runtime_Startup_sfxnTab__C                                            
00001460  xdc_runtime_Startup_startModsFxn__C                                       
1001c309  xdc_runtime_Startup_startMods__I                                          
00001464  xdc_runtime_SysCallback_abortFxn__C                                       
1001c80d  xdc_runtime_SysCallback_abort__E                                          
000092bf  xdc_runtime_SysCallback_defaultAbort                                      
000092c1  xdc_runtime_SysCallback_defaultExit                                       
00001468  xdc_runtime_SysCallback_exitFxn__C                                        
1001c81d  xdc_runtime_SysCallback_exit__E                                           
20001c08  xdc_runtime_SysMin_Module_State_0_outbuf__A                               
20002ae4  xdc_runtime_SysMin_Module__state__V                                       
00008999  xdc_runtime_SysMin_Module_startup__E                                      
000082b9  xdc_runtime_SysMin_abort__E                                               
0000ce80  xdc_runtime_SysMin_bufSize__C                                             
00008b0d  xdc_runtime_SysMin_exit__E                                                
0000cb92  xdc_runtime_SysMin_flushAtExit__C                                         
00007b99  xdc_runtime_SysMin_flush__E                                               
0000ce84  xdc_runtime_SysMin_outputFunc__C                                          
00008815  xdc_runtime_SysMin_output__I                                              
00007dfd  xdc_runtime_SysMin_putch__E                                               
00009045  xdc_runtime_SysMin_ready__E                                               
1001bbe5  xdc_runtime_System_Module_GateProxy_Handle__label__S                      
1001bbe5  xdc_runtime_System_Module_GateProxy_Handle__label__S__mangled__           
1001bc05  xdc_runtime_System_Module_GateProxy_Object__delete__S                     
1001bc05  xdc_runtime_System_Module_GateProxy_Object__delete__S__mangled__          
1001c88d  xdc_runtime_System_Module_GateProxy_enter__E                              
1001c891  xdc_runtime_System_Module_GateProxy_leave__E                              
1001c265  xdc_runtime_System_Module_GateProxy_query__E                              
1001c265  xdc_runtime_System_Module_GateProxy_query__E__mangled__                   
20002b88  xdc_runtime_System_Module_State_0_atexitHandlers__A                       
200001f8  xdc_runtime_System_Module__state__V                                       
1001c87b  xdc_runtime_System_Module_startup__E                                      
000082b9  xdc_runtime_System_SupportProxy_abort__E                                  
00008b0d  xdc_runtime_System_SupportProxy_exit__E                                   
00007b99  xdc_runtime_System_SupportProxy_flush__E                                  
00007dfd  xdc_runtime_System_SupportProxy_putch__E                                  
00009045  xdc_runtime_System_SupportProxy_ready__E                                  
0000146c  xdc_runtime_System_abortFxn__C                                            
1001c895  xdc_runtime_System_abortSpin__E                                           
1001c745  xdc_runtime_System_abort__E                                               
1001c67d  xdc_runtime_System_atexit__E                                              
00001bf1  xdc_runtime_System_doPrint__I                                             
00001470  xdc_runtime_System_exitFxn__C                                             
1001c897  xdc_runtime_System_exitSpin__E                                            
1001c7cd  xdc_runtime_System_exit__E                                                
0000ce88  xdc_runtime_System_extendFxn__C                                           
00007b99  xdc_runtime_System_flush__E                                               
000068f9  xdc_runtime_System_formatNum__I                                           
00001474  xdc_runtime_System_maxAtexitHandlers__C                                   
000045e5  xdc_runtime_System_printfExtend__I                                        
00008b43  xdc_runtime_System_printf__E                                              
000092b7  xdc_runtime_System_printf_va__F                                           
1001c6b5  xdc_runtime_System_processAtExit__E                                       
00008527  xdc_runtime_System_putchar__I                                             
000087f1  xdc_runtime_System_vprintf__E                                             
00009055  xdc_runtime_System_vsnprintf__E                                           
0000148c  xdc_runtime_Text_charCnt__C                                               
0000ce93  xdc_runtime_Text_charTab__A                                               
00001478  xdc_runtime_Text_charTab__C                                               
1001c719  xdc_runtime_Text_cordText__E                                              
0000148e  xdc_runtime_Text_isLoaded__C                                              
0000147c  xdc_runtime_Text_nameEmpty__C                                             
00001480  xdc_runtime_Text_nameStatic__C                                            
00001484  xdc_runtime_Text_nameUnknown__C                                           
000082e9  xdc_runtime_Text_printVisFxn__I                                           
000072a1  xdc_runtime_Text_putLab__E                                                
00005f05  xdc_runtime_Text_putMod__E                                                
00005ad1  xdc_runtime_Text_putSite__E                                               
0000cd56  xdc_runtime_Text_registryModsLastId__C                                    
1001c7e5  xdc_runtime_Text_ropeText__E                                              
0000ce94  xdc_runtime_Text_unnamedModsLastId__C                                     
0000ce8c  xdc_runtime_Text_visitRopeFxn__C                                          
00009275  xdc_runtime_Text_visitRope__I                                             
00007bdd  xdc_runtime_Text_xprintf__I                                               
1001c82d  xdc_runtime_Timestamp_SupportProxy_get32__E                               
000090ab  xdc_runtime_Timestamp_SupportProxy_get32__E__mangled__                    
1001b9cd  xdc_runtime_Timestamp_SupportProxy_get64__E                               
1001b9cd  xdc_runtime_Timestamp_SupportProxy_get64__E__mangled__                    
1001c12b  xdc_runtime_Timestamp_SupportProxy_getFreq__E                             
1001c12b  xdc_runtime_Timestamp_SupportProxy_getFreq__E__mangled__                  
1001c82d  xdc_runtime_Timestamp_get32__E                                            
1001c82d  xdc_runtime_Timestamp_get32__E                                            
1001b9cd  xdc_runtime_Timestamp_get64__E                                            
1001b9cd  xdc_runtime_Timestamp_get64__E                                            
1001c12b  xdc_runtime_Timestamp_getFreq__E                                          
1001c12b  xdc_runtime_Timestamp_getFreq__E                                          


GLOBAL SYMBOLS: SORTED BY Symbol Address 

address   name                                                                      
-------   ----                                                                      
00000000  __ASM__                                                                   
00000000  ti_sysbios_family_arm_m3_Hwi_resetVectors                                 
00000001  xdc_runtime_Startup__EXECFXN__C                                           
00000001  xdc_runtime_Startup__RESETFXN__C                                          
00000040  __TI_static_base__                                                        
0000005c  __ISA__                                                                   
0000006e  __PLAT__                                                                  
00000095  __TARG__                                                                  
000000ba  __TRDR__                                                                  
00000300  __STACK_SIZE                                                              
000003c4  __TI_Handler_Table_Base                                                   
000003d0  __TI_Handler_Table_Limit                                                  
00000408  __TI_CINIT_Base                                                           
00000468  __TI_CINIT_Limit                                                          
00001000  ti_sysbios_knl_Task_Object__PARAMS__C                                     
0000103c  ti_sysbios_knl_Mailbox_Object__PARAMS__C                                  
00001070  ti_sysbios_family_arm_m3_Hwi_Object__PARAMS__C                            
000010a0  ti_sysbios_hal_Hwi_Object__PARAMS__C                                      
000010cc  ti_sysbios_heaps_HeapMem_Module__FXNS__C                                  
000010f4  ti_sysbios_knl_Swi_Object__PARAMS__C                                      
0000111c  ti_sysbios_gates_GateHwi_Module__FXNS__C                                  
00001140  ti_sysbios_gates_GateMutex_Module__FXNS__C                                
00001164  ti_sysbios_heaps_HeapMem_Object__PARAMS__C                                
00001188  ti_sysbios_knl_Clock_Object__PARAMS__C                                    
000011ac  ti_sysbios_knl_Semaphore_Object__PARAMS__C                                
000011d0  ti_sysbios_family_arm_m3_Hwi_Object__DESC__C                              
000011f0  ti_sysbios_gates_GateHwi_Object__DESC__C                                  
00001210  ti_sysbios_gates_GateMutex_Object__DESC__C                                
00001230  ti_sysbios_hal_Hwi_Object__DESC__C                                        
00001250  ti_sysbios_heaps_HeapMem_Object__DESC__C                                  
00001270  ti_sysbios_knl_Clock_Object__DESC__C                                      
00001290  ti_sysbios_knl_Mailbox_Object__DESC__C                                    
000012b0  ti_sysbios_knl_Queue_Object__DESC__C                                      
000012d0  ti_sysbios_knl_Semaphore_Object__DESC__C                                  
000012f0  ti_sysbios_knl_Swi_Object__DESC__C                                        
00001310  ti_sysbios_knl_Task_Object__DESC__C                                       
00001330  ti_sysbios_gates_GateHwi_Object__PARAMS__C                                
00001348  ti_sysbios_gates_GateMutex_Object__PARAMS__C                              
00001360  ti_sysbios_knl_Queue_Object__PARAMS__C                                    
00001378  ti_sysbios_knl_Idle_funcList__C                                           
00001384  ti_sysbios_family_arm_cc26xx_Timer_startupNeeded__C                       
00001388  ti_sysbios_family_arm_m3_Hwi_E_alreadyDefined__C                          
0000138c  ti_sysbios_family_arm_m3_Hwi_E_hwiLimitExceeded__C                        
00001390  ti_sysbios_family_arm_m3_Hwi_NUM_INTERRUPTS__C                            
00001394  ti_sysbios_family_arm_m3_Hwi_Object__count__C                             
00001398  ti_sysbios_family_arm_m3_Hwi_Object__table__C                             
0000139c  ti_sysbios_family_arm_m3_Hwi_ccr__C                                       
000013a0  ti_sysbios_family_arm_m3_Hwi_excHandlerFunc__C                            
000013a4  ti_sysbios_family_arm_m3_Hwi_nullIsrFunc__C                               
000013a8  ti_sysbios_family_arm_m3_Hwi_numSparseInterrupts__C                       
000013ac  ti_sysbios_family_arm_m3_Hwi_priGroup__C                                  
000013b0  ti_sysbios_family_arm_m3_TaskSupport_stackAlignment__C                    
000013b4  ti_sysbios_heaps_HeapMem_E_memory__C                                      
000013b8  ti_sysbios_heaps_HeapMem_Module__gateObj__C                               
000013bc  ti_sysbios_heaps_HeapMem_Object__count__C                                 
000013c0  ti_sysbios_heaps_HeapMem_Object__table__C                                 
000013c4  ti_sysbios_heaps_HeapMem_reqAlign__C                                      
000013c8  ti_sysbios_knl_Clock_serviceMargin__C                                     
000013cc  ti_sysbios_knl_Mailbox_Object__count__C                                   
000013d0  ti_sysbios_knl_Mailbox_Object__table__C                                   
000013d4  ti_sysbios_knl_Mailbox_maxTypeAlign__C                                    
000013d8  ti_sysbios_knl_Queue_Object__count__C                                     
000013dc  ti_sysbios_knl_Queue_Object__table__C                                     
000013e0  ti_sysbios_knl_Swi_Object__count__C                                       
000013e4  ti_sysbios_knl_Swi_Object__table__C                                       
000013e8  ti_sysbios_knl_Swi_numPriorities__C                                       
000013ec  ti_sysbios_knl_Task_Object__count__C                                      
000013f0  ti_sysbios_knl_Task_Object__table__C                                      
000013f4  ti_sysbios_knl_Task_allBlockedFunc__C                                     
000013f8  ti_sysbios_knl_Task_defaultStackHeap__C                                   
000013fc  ti_sysbios_knl_Task_defaultStackSize__C                                   
00001400  ti_sysbios_knl_Task_numConstructedTasks__C                                
00001406  ti_sysbios_family_arm_cc26xx_Timer_Module__id__C                          
00001408  ti_sysbios_family_arm_cc26xx_TimestampProvider_useClockTimer__C           
0000140a  ti_sysbios_family_arm_m3_Hwi_Module__id__C                                
0000140c  ti_sysbios_gates_GateHwi_Module__id__C                                    
0000140e  ti_sysbios_gates_GateMutex_Module__id__C                                  
00001410  ti_sysbios_heaps_HeapMem_Module__id__C                                    
00001412  ti_sysbios_knl_Task_initStackFlag__C                                      
00001414  ti_sysbios_knl_Clock_tickMode__C                                          
00001418  xdc_runtime_Startup_firstFxns__C                                          
00001420  xdc_runtime_Startup_lastFxns__C                                           
00001428  xdc_runtime_Assert_E_assertFailed__C                                      
0000142c  xdc_runtime_Error_E_memory__C                                             
00001430  xdc_runtime_Error_policyFxn__C                                            
00001434  xdc_runtime_IGateProvider_Interface__BASE__C                              
00001438  xdc_runtime_IHeap_Interface__BASE__C                                      
0000143c  xdc_runtime_IModule_Interface__BASE__C                                    
00001440  xdc_runtime_Main_Module__diagsEnabled__C                                  
00001444  xdc_runtime_Main_Module__diagsIncluded__C                                 
00001448  xdc_runtime_Main_Module__diagsMask__C                                     
0000144c  xdc_runtime_Memory_defaultHeapInstance__C                                 
00001450  xdc_runtime_Startup_execImpl__C                                           
00001454  xdc_runtime_Startup_maxPasses__C                                          
00001458  xdc_runtime_Startup_sfxnRts__C                                            
0000145c  xdc_runtime_Startup_sfxnTab__C                                            
00001460  xdc_runtime_Startup_startModsFxn__C                                       
00001464  xdc_runtime_SysCallback_abortFxn__C                                       
00001468  xdc_runtime_SysCallback_exitFxn__C                                        
0000146c  xdc_runtime_System_abortFxn__C                                            
00001470  xdc_runtime_System_exitFxn__C                                             
00001474  xdc_runtime_System_maxAtexitHandlers__C                                   
00001478  xdc_runtime_Text_charTab__C                                               
0000147c  xdc_runtime_Text_nameEmpty__C                                             
00001480  xdc_runtime_Text_nameStatic__C                                            
00001484  xdc_runtime_Text_nameUnknown__C                                           
00001488  xdc_runtime_Main_Module__id__C                                            
0000148a  xdc_runtime_Memory_Module__id__C                                          
0000148c  xdc_runtime_Text_charCnt__C                                               
0000148e  xdc_runtime_Text_isLoaded__C                                              
00001490  xdc_runtime_Error_policy__C                                               
00001494  ti_sysbios_rom_ROM_AONRTCChannelEnable                                    
00001498  ti_sysbios_rom_ROM_AONRTCCompareValueSet                                  
0000149c  ti_sysbios_rom_ROM_AONRTCCurrentCompareValueGet                           
000014a0  ti_sysbios_rom_ROM_AONRTCEventClear                                       
000014a4  ti_sysbios_rom_ROM_ti_sysbios_family_arm_cc26xx_Timer_getCount64__E       
000014a8  ti_sysbios_rom_ROM_ti_sysbios_family_arm_cc26xx_Timer_getCurrentTick__E   
000014ac  ti_sysbios_rom_ROM_ti_sysbios_family_arm_cc26xx_Timer_getMaxTicks__E      
000014b0  ti_sysbios_rom_ROM_ti_sysbios_family_arm_cc26xx_Timer_initDevice__I       
000014b4  ti_sysbios_rom_ROM_ti_sysbios_family_arm_cc26xx_Timer_setNextTick__E      
000014b8  ti_sysbios_rom_ROM_ti_sysbios_family_arm_cc26xx_Timer_setThreshold__I     
000014bc  ti_sysbios_rom_ROM_ti_sysbios_family_arm_cc26xx_Timer_start__E            
000014c0  ti_sysbios_rom_ROM_ti_sysbios_family_arm_cc26xx_TimestampProvider_get32__E
000014c4  ti_sysbios_rom_ROM_xdc_runtime_Startup_getState__I                        
000014c8  ti_sysbios_rom_ROM_xdc_runtime_System_SupportProxy_abort__E               
000014cc  ti_sysbios_rom_ROM_xdc_runtime_System_SupportProxy_exit__E                
000014d0  ti_sysbios_gates_GateMutex_Instance_State_sem__O                          
000014d4  ti_sysbios_knl_Clock_Module_State_clockQ__O                               
000014d8  ti_sysbios_knl_Mailbox_Instance_State_dataQue__O                          
000014dc  ti_sysbios_knl_Mailbox_Instance_State_dataSem__O                          
000014e0  ti_sysbios_knl_Mailbox_Instance_State_freeQue__O                          
000014e4  ti_sysbios_knl_Mailbox_Instance_State_freeSem__O                          
000014e8  ti_sysbios_knl_Semaphore_Instance_State_pendQ__O                          
000014ec  ti_sysbios_knl_Task_Module_State_inactiveQ__O                             
000018a9  EasyLink_init                                                             
00001bf1  xdc_runtime_System_doPrint__I                                             
00001f2d  NOROM_SysCtrlSetRechargeBeforePowerDown                                   
00002155  Power_sleep                                                               
00002569  RF_postCmd                                                                
00002919  PIN_init                                                                  
00002add  PowerCC26XX_doCalibrate                                                   
00002e05  EasyLink_receiveAsync                                                     
000034f5  InitSensors                                                               
00003635  EasyLink_transmit                                                         
00003771  __aeabi_ddiv                                                              
000038a7  _nop                                                                      
000038a9  NOROM_SetupAfterColdResetWakeupFromShutDownCfg3                           
000039d9  Power_init                                                                
000041d1  timerCallback                                                             
000042e5  RF_close                                                                  
000043ed  scifInit                                                                  
000044ed  I2CCC26XX_open                                                            
000045e5  xdc_runtime_System_printfExtend__I                                        
000046dd  NOROM_SetupAfterColdResetWakeupFromShutDownCfg2                           
000048b5  ti_sysbios_knl_Event_pend__E                                              
00004b5d  EasyLink_enableRxAddrFilter                                               
00004c35  NOROM_RFCRTrim                                                            
00004ebd  NOROM_RFCRfTrimRead                                                       
00004f91  PowerCC26XX_standbyPolicy                                                 
00005065  Power_releaseDependency                                                   
00005139  fetchSensorData                                                           
0000520d  Power_setDependency                                                       
000052dd  RF_open                                                                   
00005535  I2CCC26XX_transfer                                                        
000055f9  EasyLink_setCtrl                                                          
00005839  NodeRadioTask_init                                                        
000058e5  NOROM_SetupTrimDevice                                                     
000058e5  ti_sysbios_family_arm_cc26xx_Boot_trimDevice                              
0000598d  NOROM_SetupAfterColdResetWakeupFromShutDownCfg1                           
00005a31  __TI_auto_init                                                            
00005ad1  xdc_runtime_Text_putSite__E                                               
00005b71  HDC_readData                                                              
00005c0d  __aeabi_memcpy                                                            
00005c0d  __aeabi_memcpy4                                                           
00005c0d  __aeabi_memcpy8                                                           
00005c0d  memcpy                                                                    
00005ca9  NodeTask_init                                                             
00005d41  ti_sysbios_knl_Clock_workFuncDynamic__E                                   
00005dd9  __aeabi_uldivmod                                                          
00005e71  PIN_open                                                                  
00005f05  xdc_runtime_Text_putMod__E                                                
00005f99  I2CCC26XX_cancel                                                          
000060b9  GPTimerCC26XX_open                                                        
0000625d  scifInitIo                                                                
000063f5  RF_pendCmd                                                                
00006475  __aeabi_memclr                                                            
00006475  __aeabi_memclr4                                                           
00006475  __aeabi_memclr8                                                           
00006477  __aeabi_memset                                                            
00006477  __aeabi_memset4                                                           
00006477  __aeabi_memset8                                                           
0000647d  memset                                                                    
000064f1  NOROM_SetupSetVddrLevel                                                   
00006565  PowerCC26XX_auxISR                                                        
00006735  ti_sysbios_family_arm_cc26xx_Timer_start__E                               
000067a9  NOROM_ChipInfo_GetHwRevision                                              
00006819  scifGetTaskStruct                                                         
00006889  ti_sysbios_knl_Event_post__E                                              
000068f9  xdc_runtime_System_formatNum__I                                           
00006969  BMP_readData                                                              
000069d5  NOROM_SetupGetTrimForAmpcompCtrl                                          
00006a41  PowerCC26XX_calibrate                                                     
00006aad  Find_median                                                               
00006b15  NOROM_SetupGetTrimForAnabypassValue1                                      
00006b7d  NOROM_SysCtrl_DCDC_VoltageConditionalControl                              
00006be5  RF_getCurrentTime                                                         
00006c4d  __TI_decompress_lzss                                                      
00006cb5  I2CCC26XX_close                                                           
00006d7d  NOROM_OSCHF_AttemptToSwitchToXosc                                         
00006de1  GPTimerCC26XX_registerInterrupt                                           
00006e41  NOROM_OSCClockSourceSet                                                   
00006ea1  PowerCC26XX_RCOSC_clockFunc                                               
00006fc1  NOROM_SysCtrlAdjustRechargeAfterPowerDown                                 
0000701d  NodeRadioTask_sendAdcData                                                 
00007079  PIN_remove                                                                
00007245  xdc_runtime_Startup_getState__I                                           
000072a1  xdc_runtime_Text_putLab__E                                                
000072fd  GPTimerCC26XX_stop                                                        
00007355  HOSTwrite                                                                 
00007405  PowerCC26XX_initiateCalibration                                           
000074b5  scifReinitIo                                                              
0000750d  scifUninitIo                                                              
00007565  SceAdc_init                                                               
00007705  NOROM_SetupSetCacheModeAccordingToCcfgSetting                             
000077f5  GPTimerCC26XX_start                                                       
0000788d  copy_in                                                                   
00007969  NOROM_ChipInfo_GetChipFamily                                              
000079f9  RF_runCmd                                                                 
00007a89  ResetISR                                                                  
00007a89  _c_int00                                                                  
00007acd  main                                                                      
00007b11  __aeabi_d2uiz                                                             
00007b55  scifStartRtcTicks                                                         
00007b99  xdc_runtime_SysMin_flush__E                                               
00007b99  xdc_runtime_System_SupportProxy_flush__E                                  
00007b99  xdc_runtime_System_flush__E                                               
00007bdd  xdc_runtime_Text_xprintf__I                                               
00007c21  __aeabi_uidiv                                                             
00007c21  __aeabi_uidivmod                                                          
00007c61  scifStartRtcTicksNow                                                      
00007ca1  NOROM_OSC_HPOSCRelativeFrequencyOffsetGet                                 
00007cdd  NOROM_RFCSynthPowerDown                                                   
00007d19  PIN_setOutputValue                                                        
00007d55  I2C_init                                                                  
00007d8d  __TI_writemsg                                                             
00007dbb  C$$IO$$                                                                   
00007dc5  ti_sysbios_family_arm_cc26xx_Timer_getCurrentTick__E                      
00007dfd  xdc_runtime_SysMin_putch__E                                               
00007dfd  xdc_runtime_System_SupportProxy_putch__E                                  
00007e35  ti_sysbios_family_arm_cc26xx_Timer_setNextTick__E                         
00007f09  NOROM_OSCHF_SwitchToRcOscTurnOffXosc                                      
00007f3d  PIN_setConfig                                                             
00007fa5  __TI_readmsg                                                              
00007fd9  buttonCallback                                                            
0000800d  scifAckAlertEvents                                                        
00008075  ti_sysbios_family_arm_cc26xx_Timer_initDevice__I                          
000080a9  I2C_open                                                                  
000080d9  NOROM_ChipInfo_GetChipType                                                
00008109  NOROM_SetupSetAonRtcSubSecInc                                             
00008139  Power_releaseConstraint                                                   
00008169  Power_setConstraint                                                       
00008229  ti_sysbios_BIOS_atExitFunc__I                                             
00008259  ti_sysbios_BIOS_startFunc__I                                              
00008289  ti_sysbios_family_arm_cc26xx_Timer_setThreshold__I                        
000082b9  xdc_runtime_SysMin_abort__E                                               
000082b9  xdc_runtime_System_SupportProxy_abort__E                                  
000082e9  xdc_runtime_Text_printVisFxn__I                                           
00008345  NOROM_DDI32RegWrite                                                       
00008371  NOROM_OSCClockSourceGet                                                   
0000839d  NOROM_SetupGetTrimForRadcExtCfg                                           
000083c9  PINCC26XX_setMux                                                          
00008479  ti_sysbios_knl_Clock_getTicksUntilInterrupt__E                            
000084a5  ti_sysbios_knl_Event_construct                                            
000084d1  ti_sysbios_knl_Event_pendTimeout__I                                       
00008527  xdc_runtime_System_putchar__I                                             
00008551  GPTimerCC26XX_configureDebugStall                                         
00008579  NOROM_AONBatMonTemperatureGetDegC                                         
000085a1  Power_registerNotify                                                      
000085f1  SafeHapiVoid                                                              
00008619  List_put                                                                  
00008665  GPTimerCC26XX_enableInterrupt                                             
00008689  PINCC26XX_getPinCount                                                     
000086ad  SceAdc_setReportInterval                                                  
000086d1  adcCallback                                                               
00008761  scifOsalInit                                                              
00008785  ti_sysbios_BIOS_registerRTSLock__I                                        
000087a9  ti_sysbios_BIOS_removeRTSLock__I                                          
000087cd  ti_sysbios_family_arm_cc26xx_Timer_getMaxTicks__E                         
000087f1  xdc_runtime_System_vprintf__E                                             
00008815  xdc_runtime_SysMin_output__I                                              
00008837  __aeabi_idiv0                                                             
00008837  __aeabi_ldiv0                                                             
00008839  NOROM_RFCAdi3VcoLdoVoltageMode                                            
00008859  NOROM_RFCDoorbellSendTo                                                   
00008879  NOROM_SetupGetTrimForXoscHfCtl                                            
00008899  Power_unregisterNotify                                                    
000088f9  __aeabi_ui2d                                                              
00008919  ti_sysbios_BIOS_rtsLock__I                                                
00008939  ti_sysbios_family_arm_cc26xx_Timer_dynamicStub__E                         
00008959  ti_sysbios_knl_Clock_stop__E                                              
00008979  ti_sysbios_knl_Event_checkEvents__I                                       
00008999  xdc_runtime_SysMin_Module_startup__E                                      
000089b9  PIN_close                                                                 
000089d7  Power_getTransitionLatency                                                
000089f5  NOROM_SetupGetTrimForAmpcompTh2                                           
00008a11  NOROM_SetupGetTrimForRcOscLfRtuneCtuneTrim                                
00008ad5  ti_sysbios_family_arm_m3_Hwi_clearInterrupt__E                            
00008ad5  ti_sysbios_hal_Hwi_HwiProxy_clearInterrupt__E                             
00008ad5  ti_sysbios_hal_Hwi_clearInterrupt__E                                      
00008af1  xdc_runtime_Registry_findById__E                                          
00008b0d  xdc_runtime_SysMin_exit__E                                                
00008b0d  xdc_runtime_System_SupportProxy_exit__E                                   
00008b29  List_remove                                                               
00008b43  xdc_runtime_System_printf__E                                              
00008b5d  NOROM_AONRTCCurrentCompareValueGet                                        
00008b75  NOROM_ChipInfo_GetPackageType                                             
00008b8d  NOROM_OSCHF_TurnOnXosc                                                    
00008ba5  NOROM_RFCCpeIntGetAndClear                                                
00008bbd  NOROM_SetupGetTrimForAdcShModeEn                                          
00008bd5  NOROM_SetupGetTrimForAdcShVbufEn                                          
00008bed  NOROM_SetupGetTrimForAmpcompTh1                                           
00008c05  NOROM_SetupGetTrimForDblrLoopFilterResetVoltage                           
00008c1d  NOROM_SetupGetTrimForRcOscLfIBiasTrim                                     
00008c35  NOROM_SetupGetTrimForXoscLfRegulatorAndCmirrwrRatio                       
00008c4d  Power_idleFunc                                                            
00008c7d  _args_main                                                                
00008cad  __aeabi_lmul                                                              
00008cc5  scifClearAlertIntSource                                                   
00008cf5  ti_sysbios_BIOS_rtsUnlock__I                                              
00008d0d  ti_sysbios_knl_Swi_or__E                                                  
00008d25  NOROM_ThisCodeIsBuiltForCC13xxHwRev20AndLater_HaltIfViolated              
00008d3b  ti_sysbios_BIOS_exitFunc__I                                               
00008e17  ti_sysbios_BIOS_linkedWithIncorrectBootLibrary__E                         
00008e2d  NOROM_AONRTCCurrent64BitValueGet                                          
00008e41  PIN_getInputValue                                                         
00008e55  PIN_getOutputValue                                                        
00008e69  RF_Params_init                                                            
00008e7d  SceAdc_registerAdcCallback                                                
00008ea5  scifOsalRegisterCtrlReadyCallback                                         
00008eb9  scifOsalRegisterTaskAlertCallback                                         
00008ecd  strlen                                                                    
00008ee1  ti_sysbios_knl_Clock_doTick__I                                            
00008ef5  ti_sysbios_knl_Event_Instance_init__E                                     
00008f09  readRawHumidity                                                           
00008f1b  readRawPressure                                                           
00008f2d  readRawTemperature                                                        
00008f3f  scifStartTasksNbl                                                         
00008f63  xdc_runtime_Startup_exec__I                                               
00008f95  I2C_Params_init                                                           
00008fa5  NOROM_RFCRfTrimSet                                                        
00008fb5  NOROM_SetupGetTrimForXoscHfFastStart                                      
00008fc5  NOROM_SetupGetTrimForXoscHfIbiastherm                                     
00009015  fastReportTimeoutCallback                                                 
00009035  ti_sysbios_family_arm_m3_Hwi_post__E                                      
00009035  ti_sysbios_hal_Hwi_HwiProxy_post__E                                       
00009035  ti_sysbios_hal_Hwi_post__E                                                
00009045  xdc_runtime_SysMin_ready__E                                               
00009045  xdc_runtime_System_SupportProxy_ready__E                                  
00009055  xdc_runtime_System_vsnprintf__E                                           
00009065  NOROM_VIMSModeGet                                                         
00009073  __TI_decompress_none                                                      
000090ab  ti_sysbios_family_arm_cc26xx_TimestampProvider_get32__E                   
000090ab  xdc_runtime_Timestamp_SupportProxy_get32__E__mangled__                    
000090c5  GPTimerCC26XX_Params_init                                                 
000090d1  NOROM_CPUcpsid                                                            
000090dd  NOROM_CPUcpsie                                                            
000090e9  PIN_registerIntCb                                                         
000090f5  Power_getConstraintMask                                                   
00009101  Power_getDependencyCount                                                  
00009131  _register_lock                                                            
0000913d  _register_unlock                                                          
00009149  __TI_zero_init                                                            
00009161  scifGetAlertEvents                                                        
0000916d  scifOsalLeaveCriticalSection                                              
00009185  ti_sysbios_knl_Event_Params__init__S                                      
000091c1  ti_sysbios_knl_Swi_getTrigger__E                                          
000091cd  xdc_runtime_Startup_rtsDone__E                                            
000091d9  I2CCC26XX_init                                                            
000091e3  I2C_transfer                                                              
000091ed  List_empty                                                                
000091f7  SceAdc_start                                                              
0000923d  GPTimerCC26XX_setLoadValue                                                
0000926d  scifOsalEnterCriticalSection                                              
00009275  xdc_runtime_Text_visitRope__I                                             
0000927d  GPTimerCC26XX_getValue                                                    
00009283  I2CCC26XX_control                                                         
00009289  NOROM_CPUdelay                                                            
00009295  ti_sysbios_family_arm_m3_Hwi_setFunc__E                                   
0000929b  HwiP_disable                                                              
0000929f  List_head                                                                 
000092a3  List_next                                                                 
000092af  ti_sysbios_family_arm_cc26xx_Timer_getCount64__E                          
000092b3  xdc_runtime_Startup_reset__I                                              
000092b7  xdc_runtime_System_printf_va__F                                           
000092bb  ti_sysbios_BIOS_nullFunc__I                                               
000092bd  ti_sysbios_knl_Clock_triggerFunc__I                                       
000092bf  xdc_runtime_SysCallback_defaultAbort                                      
000092c1  xdc_runtime_SysCallback_defaultExit                                       
0000cb92  xdc_runtime_SysMin_flushAtExit__C                                         
0000cb94  GPTimerCC26XX_config                                                      
0000cbf4  gptimerCC26xxHWAttrs                                                      
0000cc54  resourceDB                                                                
0000cce8  xdc_runtime_Startup_sfxnTab__A                                            
0000cd10  scifDriverSetup                                                           
0000cd56  xdc_runtime_Text_registryModsLastId__C                                    
0000cd58  I2CCC26XX_fxnTable                                                        
0000cd78  ti_sysbios_knl_Event_Object__DESC__C                                      
0000cd98  I2C_config                                                                
0000cdb0  i2cCC26xxHWAttrs                                                          
0000cdc8  ti_sysbios_knl_Event_Object__PARAMS__C                                    
0000cdf4  xdc_runtime_Startup_sfxnRts__A                                            
0000ce18  BoardGpioInitTable                                                        
0000ce28  PowerCC26XX_config                                                        
0000ce38  I2C_defaultParams                                                         
0000ce58  xdc_runtime_Startup_firstFxns__A                                          
0000ce64  PINCC26XX_hwAttrs                                                         
0000ce6c  RFCC26XX_hwAttrs                                                          
0000ce70  ti_sysbios_knl_Clock_tickPeriod__C                                        
0000ce74  ti_sysbios_knl_Clock_triggerClock__C                                      
0000ce78  ti_sysbios_knl_Event_Instance_State_pendQ__O                              
0000ce7c  ti_sysbios_knl_Idle_funcList__A                                           
0000ce80  xdc_runtime_SysMin_bufSize__C                                             
0000ce84  xdc_runtime_SysMin_outputFunc__C                                          
0000ce88  xdc_runtime_System_extendFxn__C                                           
0000ce8c  xdc_runtime_Text_visitRopeFxn__C                                          
0000ce93  xdc_runtime_Text_charTab__A                                               
0000ce94  xdc_runtime_Text_unnamedModsLastId__C                                     
0001ffa8  __ccfg                                                                    
1001a001  ti_sysbios_knl_Semaphore_pend__E                                          
1001a0cd  ti_sysbios_knl_Mailbox_Instance_init__E                                   
1001a195  ti_sysbios_heaps_HeapMem_alloc__E                                         
1001a259  ti_sysbios_knl_Task_Instance_init__E                                      
1001a315  ti_sysbios_family_arm_m3_Hwi_postInit__I                                  
1001a3c5  ti_sysbios_family_arm_m3_Hwi_Instance_init__E                             
1001a465  ti_sysbios_family_arm_cc26xx_Timer_periodicStub__E                        
1001a4f9  ti_sysbios_knl_Task_Instance_finalize__E                                  
1001a58d  ti_sysbios_knl_Mailbox_post__E                                            
1001a611  ti_sysbios_knl_Task_postInit__I                                           
1001a695  ti_sysbios_family_arm_m3_Hwi_initNVIC__E                                  
1001a715  ti_sysbios_knl_Clock_startI__E                                            
1001a791  ti_sysbios_heaps_HeapMem_free__E                                          
1001a809  ti_sysbios_knl_Clock_walkQueueDynamic__E                                  
1001a881  ti_sysbios_knl_Clock_workFunc__E                                          
1001a8f9  ti_sysbios_knl_Mailbox_Instance_finalize__E                               
1001a969  ti_sysbios_knl_Mailbox_pend__E                                            
1001a9d9  ti_sysbios_knl_Task_sleep__E                                              
1001aa49  ti_sysbios_family_arm_m3_Hwi_dispatchC__I                                 
1001aab1  ti_sysbios_family_arm_m3_Hwi_Object__create__S                            
1001ab15  ti_sysbios_family_arm_m3_Hwi_create                                       
1001ab79  ti_sysbios_hal_Hwi_create                                                 
1001abdd  ti_sysbios_knl_Mailbox_create                                             
1001ac41  ti_sysbios_knl_Semaphore_post__E                                          
1001aca5  ti_sysbios_knl_Swi_Instance_init__E                                       
1001ad05  ti_sysbios_knl_Swi_create                                                 
1001ad61  ti_sysbios_knl_Swi_restoreHwi__E                                          
1001adbd  ti_sysbios_knl_Task_Module_startup__E                                     
1001ae19  ti_sysbios_knl_Task_create                                                
1001ae75  ti_sysbios_knl_Task_startCore__E                                          
1001aed1  ti_sysbios_family_arm_m3_Hwi_Instance_finalize__E                         
1001af29  ti_sysbios_family_arm_m3_Hwi_construct                                    
1001af81  ti_sysbios_knl_Mailbox_construct                                          
1001afd9  ti_sysbios_knl_Swi_run__I                                                 
1001b031  ti_sysbios_knl_Swi_schedule__I                                            
1001b085  ti_sysbios_knl_Swi_construct                                              
1001b0d5  ti_sysbios_knl_Swi_runLoop__I                                             
1001b125  ti_sysbios_knl_Task_construct                                             
1001b175  ti_sysbios_knl_Task_schedule__I                                           
1001b1c1  ti_sysbios_family_arm_m3_Hwi_Module_startup__E                            
1001b209  ti_sysbios_heaps_HeapMem_getStats__E                                      
1001b251  ti_sysbios_family_arm_m3_Hwi_disableInterrupt__E                          
1001b251  ti_sysbios_hal_Hwi_HwiProxy_disableInterrupt__E__mangled__                
1001b295  ti_sysbios_family_arm_m3_Hwi_enableInterrupt__E                           
1001b295  ti_sysbios_hal_Hwi_HwiProxy_enableInterrupt__E__mangled__                 
1001b2d9  ti_sysbios_knl_Mailbox_Module_startup__E                                  
1001b31d  ti_sysbios_knl_Swi_post__E                                                
1001b361  ti_sysbios_knl_Task_allBlockedFunction__I                                 
1001b3a5  ti_sysbios_knl_Task_yield__E                                              
1001b3e9  ti_sysbios_knl_Clock_create                                               
1001b425  ti_sysbios_knl_Task_exit__E                                               
1001b45f  ti_sysbios_gates_GateHwi_Instance_init__E                                 
1001b461  ti_sysbios_family_arm_m3_Hwi_getStackInfo__E                              
1001b461  ti_sysbios_hal_Hwi_HwiProxy_getStackInfo__E__mangled__                    
1001b499  ti_sysbios_family_arm_m3_TaskSupport_start__E                             
1001b499  ti_sysbios_knl_Task_SupportProxy_start__E__mangled__                      
1001b4d1  ti_sysbios_heaps_HeapMem_Instance_init__E                                 
1001b509  ti_sysbios_knl_Clock_Instance_init__E                                     
1001b541  ti_sysbios_heaps_HeapMem_init__I                                          
1001b575  ti_sysbios_knl_Clock_construct                                            
1001b5a9  ti_sysbios_knl_Semaphore_create                                           
1001b5dd  ti_sysbios_knl_Swi_restore__E                                             
1001b611  ti_sysbios_knl_Task_blockI__E                                             
1001b645  ti_sysbios_gates_GateMutex_Object__create__S                              
1001b675  ti_sysbios_gates_GateMutex_create                                         
1001b6a5  ti_sysbios_gates_GateMutex_enter__E                                       
1001b6d5  ti_sysbios_knl_Clock_getTicks__E                                          
1001b705  ti_sysbios_knl_Semaphore_construct                                        
1001b735  ti_sysbios_knl_Task_processVitalTaskFlag__I                               
1001b765  ti_sysbios_family_arm_cc26xx_Timer_postInit__I                            
1001b791  ti_sysbios_family_arm_cc26xx_Timer_startup__E                             
1001b791  ti_sysbios_knl_Clock_TimerProxy_startup__E                                
1001b791  ti_sysbios_knl_Clock_TimerProxy_startup__E__mangled__                     
1001b7bd  ti_sysbios_family_arm_m3_Hwi_Object__get__S                               
1001b7e9  ti_sysbios_gates_GateMutex_construct                                      
1001b815  ti_sysbios_hal_Hwi_initStack                                              
1001b841  ti_sysbios_heaps_HeapMem_Object__create__S                                
1001b86d  ti_sysbios_heaps_HeapMem_Object__get__S                                   
1001b899  ti_sysbios_knl_Mailbox_Object__get__S                                     
1001b8c5  ti_sysbios_knl_Mailbox_postInit__I                                        
1001b8f1  ti_sysbios_knl_Queue_construct                                            
1001b91d  ti_sysbios_knl_Queue_create                                               
1001b949  ti_sysbios_knl_Semaphore_pendTimeout__I                                   
1001b975  ti_sysbios_knl_Swi_Object__get__S                                         
1001b9a1  ti_sysbios_knl_Task_unblockI__E                                           
1001b9cd  ti_sysbios_family_arm_cc26xx_TimestampProvider_get64__E                   
1001b9cd  xdc_runtime_Timestamp_SupportProxy_get64__E                               
1001b9cd  xdc_runtime_Timestamp_SupportProxy_get64__E__mangled__                    
1001b9cd  xdc_runtime_Timestamp_get64__E                                            
1001b9cd  xdc_runtime_Timestamp_get64__E                                            
1001b9f5  ti_sysbios_hal_Hwi_Instance_init__E                                       
1001ba1d  ti_sysbios_knl_Clock_addI__E                                              
1001ba45  ti_sysbios_knl_Task_restore__E                                            
1001ba6d  ti_sysbios_family_arm_cc26xx_Timer_Module_startup__E                      
1001ba91  ti_sysbios_gates_GateHwi_Object__create__S                                
1001bab5  ti_sysbios_BIOS_RtsGateProxy_Object__delete__S                            
1001bab5  ti_sysbios_BIOS_RtsGateProxy_Object__delete__S__mangled__                 
1001bab5  ti_sysbios_gates_GateMutex_Object__delete__S                              
1001bab5  ti_sysbios_heaps_HeapMem_Module_GateProxy_Object__delete__S               
1001bab5  ti_sysbios_heaps_HeapMem_Module_GateProxy_Object__delete__S__mangled__    
1001bad9  ti_sysbios_knl_Clock_Object__delete__S                                    
1001bafd  ti_sysbios_knl_Semaphore_Instance_init__E                                 
1001bb21  ti_sysbios_knl_Semaphore_Object__delete__S                                
1001bb45  ti_sysbios_family_arm_cc26xx_Timer_Module__startupDone__S                 
1001bb45  ti_sysbios_knl_Clock_TimerProxy_Module__startupDone__S__mangled__         
1001bb65  ti_sysbios_family_arm_cc26xx_TimestampProvider_Module_startup__E          
1001bb85  ti_sysbios_family_arm_m3_Hwi_Module__startupDone__S                       
1001bb85  ti_sysbios_hal_Hwi_HwiProxy_Module__startupDone__S__mangled__             
1001bba5  ti_sysbios_family_arm_m3_Hwi_Object__delete__S                            
1001bba5  ti_sysbios_hal_Hwi_HwiProxy_Object__delete__S                             
1001bba5  ti_sysbios_hal_Hwi_HwiProxy_Object__delete__S__mangled__                  
1001bbc5  ti_sysbios_family_arm_m3_Hwi_excHandler__I                                
1001bbe5  ti_sysbios_gates_GateHwi_Handle__label__S                                 
1001bbe5  xdc_runtime_Main_Module_GateProxy_Handle__label__S                        
1001bbe5  xdc_runtime_System_Module_GateProxy_Handle__label__S                      
1001bbe5  xdc_runtime_System_Module_GateProxy_Handle__label__S__mangled__           
1001bc05  ti_sysbios_gates_GateHwi_Object__delete__S                                
1001bc05  xdc_runtime_Main_Module_GateProxy_Object__delete__S                       
1001bc05  xdc_runtime_System_Module_GateProxy_Object__delete__S                     
1001bc05  xdc_runtime_System_Module_GateProxy_Object__delete__S__mangled__          
1001bc25  ti_sysbios_BIOS_RtsGateProxy_Handle__label__S                             
1001bc25  ti_sysbios_BIOS_RtsGateProxy_Handle__label__S__mangled__                  
1001bc25  ti_sysbios_gates_GateMutex_Handle__label__S                               
1001bc25  ti_sysbios_heaps_HeapMem_Module_GateProxy_Handle__label__S                
1001bc25  ti_sysbios_heaps_HeapMem_Module_GateProxy_Handle__label__S__mangled__     
1001bc45  ti_sysbios_gates_GateMutex_Object__destruct__S                            
1001bc65  ti_sysbios_hal_Hwi_Object__delete__S                                      
1001bc85  ti_sysbios_heaps_HeapMem_Handle__label__S                                 
1001bc85  xdc_runtime_Memory_HeapProxy_Handle__label__S                             
1001bc85  xdc_runtime_Memory_HeapProxy_Handle__label__S__mangled__                  
1001bca5  ti_sysbios_heaps_HeapMem_Object__delete__S                                
1001bca5  xdc_runtime_Memory_HeapProxy_Object__delete__S                            
1001bca5  xdc_runtime_Memory_HeapProxy_Object__delete__S__mangled__                 
1001bcc5  ti_sysbios_knl_Clock_Module_startup__E                                    
1001bce5  ti_sysbios_knl_Clock_Object__destruct__S                                  
1001bd05  ti_sysbios_knl_Idle_run__E                                                
1001bd25  ti_sysbios_knl_Mailbox_Object__delete__S                                  
1001bd45  ti_sysbios_knl_Queue_Object__delete__S                                    
1001bd65  ti_sysbios_knl_Queue_Object__get__S                                       
1001bd85  ti_sysbios_knl_Semaphore_Object__destruct__S                              
1001bda5  ti_sysbios_knl_Swi_Object__delete__S                                      
1001bdc5  ti_sysbios_knl_Task_Object__delete__S                                     
1001bde5  ti_sysbios_knl_Task_Object__get__S                                        
1001be05  ti_sysbios_knl_Task_enter__I                                              
1001be25  ti_sysbios_knl_Task_restoreHwi__E                                         
1001be45  ti_sysbios_hal_Hwi_HwiProxy_create                                        
1001be63  ti_sysbios_knl_Clock_logTick__E                                           
1001be65  ti_sysbios_family_arm_m3_Hwi_Object__destruct__S                          
1001be81  ti_sysbios_family_arm_m3_Hwi_setPriority__E                               
1001be9d  ti_sysbios_gates_GateMutex_Instance_init__E                               
1001beb9  ti_sysbios_knl_Clock_scheduleNextTick__E                                  
1001bed5  ti_sysbios_knl_Mailbox_Object__destruct__S                                
1001bef1  ti_sysbios_knl_Queue_Object__destruct__S                                  
1001bf0d  ti_sysbios_knl_Queue_get__E                                               
1001bf29  ti_sysbios_knl_Queue_put__E                                               
1001bf45  ti_sysbios_knl_Swi_Object__destruct__S                                    
1001bf61  ti_sysbios_knl_Task_Object__destruct__S                                   
1001bf7d  ti_sysbios_knl_Task_sleepTimeout__I                                       
1001bf97  ti_sysbios_knl_Swi_Instance_finalize__E                                   
1001bf99  ti_sysbios_gates_GateMutex_leave__E                                       
1001bfb1  ti_sysbios_knl_Task_unblock__E                                            
1001bfc9  ti_sysbios_knl_Clock_Instance_finalize__E                                 
1001bfdf  ti_sysbios_knl_Clock_start__E                                             
1001bff5  ti_sysbios_BIOS_getCpuFreq__E                                             
1001c009  ti_sysbios_family_arm_m3_Hwi_switchFromBootStack__E                       
1001c009  ti_sysbios_hal_Hwi_HwiProxy_switchFromBootStack__E__mangled__             
1001c01d  ti_sysbios_hal_Hwi_Module_startup__E                                      
1001c031  ti_sysbios_BIOS_exit__E                                                   
1001c041  ti_sysbios_BIOS_setThreadType__E                                          
1001c051  ti_sysbios_BIOS_start__E                                                  
1001c061  ti_sysbios_family_arm_m3_Hwi_plug__E                                      
1001c071  ti_sysbios_gates_GateMutex_Instance_finalize__E                           
1001c081  ti_sysbios_hal_Hwi_HwiProxy_Object__create__S                             
1001c091  ti_sysbios_knl_Clock_TimerProxy_getCurrentTick__E                         
1001c0a1  ti_sysbios_knl_Clock_TimerProxy_getMaxTicks__E                            
1001c0b1  ti_sysbios_knl_Clock_TimerProxy_setNextTick__E                            
1001c0c1  ti_sysbios_knl_Semaphore_Instance_finalize__E                             
1001c0d1  ti_sysbios_knl_Swi_disable__E                                             
1001c0e1  ti_sysbios_knl_Swi_enabled__E                                             
1001c0f1  ti_sysbios_knl_Task_disable__E                                            
1001c101  ti_sysbios_heaps_HeapMem_restore__E                                       
1001c10f  ti_sysbios_knl_Queue_empty__E                                             
1001c11d  ti_sysbios_knl_Queue_remove__E                                            
1001c12b  ti_sysbios_family_arm_cc26xx_TimestampProvider_getFreq__E                 
1001c12b  xdc_runtime_Timestamp_SupportProxy_getFreq__E                             
1001c12b  xdc_runtime_Timestamp_SupportProxy_getFreq__E__mangled__                  
1001c12b  xdc_runtime_Timestamp_getFreq__E                                          
1001c12b  xdc_runtime_Timestamp_getFreq__E                                          
1001c139  ti_sysbios_family_arm_m3_Hwi_Params__init__S                              
1001c139  ti_sysbios_hal_Hwi_HwiProxy_Params__init__S                               
1001c139  ti_sysbios_hal_Hwi_HwiProxy_Params__init__S__mangled__                    
1001c145  ti_sysbios_family_arm_m3_Hwi_disableFxn__E                                
1001c151  ti_sysbios_family_arm_m3_Hwi_enableFxn__E                                 
1001c15d  ti_sysbios_family_arm_m3_TaskSupport_getStackAlignment__E                 
1001c15d  ti_sysbios_knl_Task_SupportProxy_getStackAlignment__E__mangled__          
1001c169  ti_sysbios_gates_GateHwi_enter__E                                         
1001c175  ti_sysbios_BIOS_RtsGateProxy_Params__init__S                              
1001c175  ti_sysbios_BIOS_RtsGateProxy_Params__init__S__mangled__                   
1001c175  ti_sysbios_gates_GateMutex_Params__init__S                                
1001c175  ti_sysbios_heaps_HeapMem_Module_GateProxy_Params__init__S                 
1001c175  ti_sysbios_heaps_HeapMem_Module_GateProxy_Params__init__S__mangled__      
1001c181  ti_sysbios_knl_Clock_Params__init__S                                      
1001c18d  ti_sysbios_knl_Clock_getTimerHandle__E                                    
1001c199  ti_sysbios_knl_Mailbox_Params__init__S                                    
1001c1a5  ti_sysbios_knl_Queue_dequeue__E                                           
1001c1b1  ti_sysbios_knl_Queue_enqueue__E                                           
1001c1bd  ti_sysbios_knl_Semaphore_Params__init__S                                  
1001c1c9  ti_sysbios_knl_Swi_Params__init__S                                        
1001c1d5  ti_sysbios_knl_Task_Params__init__S                                       
1001c1e1  ti_sysbios_knl_Task_self__E                                               
1001c1ed  ti_sysbios_hal_Hwi_Instance_finalize__E                                   
1001c1f7  ti_sysbios_family_arm_m3_Hwi_doSwiRestore__I                              
1001c1ff  ti_sysbios_family_arm_m3_Hwi_startup__E                                   
1001c1ff  ti_sysbios_hal_Hwi_HwiProxy_startup__E__mangled__                         
1001c207  ti_sysbios_knl_Idle_loop__E                                               
1001c20f  ti_sysbios_family_arm_m3_Hwi_doTaskRestore__I                             
1001c215  HwiP_restore                                                              
1001c215  ti_sysbios_family_arm_m3_Hwi_restoreFxn__E                                
1001c21b  ti_sysbios_gates_GateHwi_leave__E                                         
1001c227  ti_sysbios_knl_Queue_Instance_init__E                                     
1001c22d  ti_sysbios_knl_Queue_elemClear__E                                         
1001c233  ti_sysbios_knl_Swi_Module_startup__E                                      
1001c239  ti_sysbios_knl_Swi_startup__E                                             
1001c23f  ti_sysbios_knl_Task_enable__E                                             
1001c245  ti_sysbios_BIOS_RtsGateProxy_enter__E                                     
1001c249  ti_sysbios_BIOS_RtsGateProxy_leave__E                                     
1001c24d  ti_sysbios_family_arm_cc26xx_Timer_getExpiredTicks__E                     
1001c251  ti_sysbios_family_arm_cc26xx_Timer_getPeriod__E                           
1001c255  ti_sysbios_family_arm_cc26xx_Timer_setPeriod__E                           
1001c259  ti_sysbios_family_arm_m3_Hwi_delete                                       
1001c25d  ti_sysbios_family_arm_m3_Hwi_destruct                                     
1001c261  ti_sysbios_family_arm_m3_TaskSupport_Module__startupDone__S               
1001c261  ti_sysbios_knl_Task_SupportProxy_Module__startupDone__S__mangled__        
1001c265  ti_sysbios_gates_GateHwi_query__E                                         
1001c265  xdc_runtime_Main_Module_GateProxy_query__E                                
1001c265  xdc_runtime_System_Module_GateProxy_query__E                              
1001c265  xdc_runtime_System_Module_GateProxy_query__E__mangled__                   
1001c269  ti_sysbios_gates_GateMutex_delete                                         
1001c26d  ti_sysbios_gates_GateMutex_destruct                                       
1001c271  ti_sysbios_BIOS_RtsGateProxy_query__E                                     
1001c271  ti_sysbios_BIOS_RtsGateProxy_query__E__mangled__                          
1001c271  ti_sysbios_gates_GateMutex_query__E                                       
1001c271  ti_sysbios_heaps_HeapMem_Module_GateProxy_query__E                        
1001c271  ti_sysbios_heaps_HeapMem_Module_GateProxy_query__E__mangled__             
1001c275  ti_sysbios_hal_Hwi_HwiProxy_Module__startupDone__S                        
1001c279  ti_sysbios_hal_Hwi_HwiProxy_delete                                        
1001c27d  ti_sysbios_hal_Hwi_HwiProxy_disableInterrupt__E                           
1001c27d  ti_sysbios_hal_Hwi_disableInterrupt__E                                    
1001c27d  ti_sysbios_hal_Hwi_disableInterrupt__E                                    
1001c281  ti_sysbios_hal_Hwi_HwiProxy_enableInterrupt__E                            
1001c281  ti_sysbios_hal_Hwi_enableInterrupt__E                                     
1001c281  ti_sysbios_hal_Hwi_enableInterrupt__E                                     
1001c285  ti_sysbios_hal_Hwi_HwiProxy_getStackInfo__E                               
1001c285  ti_sysbios_hal_Hwi_getStackInfo__E                                        
1001c285  ti_sysbios_hal_Hwi_getStackInfo__E                                        
1001c289  ti_sysbios_hal_Hwi_HwiProxy_startup__E                                    
1001c289  ti_sysbios_hal_Hwi_startup__E                                             
1001c289  ti_sysbios_hal_Hwi_startup__E                                             
1001c28d  ti_sysbios_hal_Hwi_HwiProxy_switchFromBootStack__E                        
1001c291  ti_sysbios_hal_Hwi_delete                                                 
1001c295  ti_sysbios_hal_Hwi_switchFromBootStack__E                                 
1001c295  ti_sysbios_hal_Hwi_switchFromBootStack__E                                 
1001c299  ti_sysbios_heaps_HeapMem_Module_GateProxy_enter__E                        
1001c29d  ti_sysbios_heaps_HeapMem_Module_GateProxy_leave__E                        
1001c2a1  ti_sysbios_heaps_HeapMem_isBlocking__E                                    
1001c2a5  ti_sysbios_knl_Clock_TimerProxy_Module__startupDone__S                    
1001c2a9  ti_sysbios_knl_Clock_TimerProxy_getExpiredTicks__E                        
1001c2ad  ti_sysbios_knl_Clock_TimerProxy_getPeriod__E                              
1001c2b1  ti_sysbios_knl_Clock_delete                                               
1001c2b5  ti_sysbios_knl_Clock_destruct                                             
1001c2b9  ti_sysbios_knl_Clock_removeI__E                                           
1001c2bd  ti_sysbios_knl_Clock_setTimeout__E                                        
1001c2c1  ti_sysbios_knl_Mailbox_delete                                             
1001c2c5  ti_sysbios_knl_Mailbox_destruct                                           
1001c2c9  ti_sysbios_knl_Queue_delete                                               
1001c2cd  ti_sysbios_knl_Queue_destruct                                             
1001c2d1  ti_sysbios_knl_Queue_head__E                                              
1001c2d5  ti_sysbios_knl_Queue_next__E                                              
1001c2d9  ti_sysbios_knl_Semaphore_delete                                           
1001c2dd  ti_sysbios_knl_Semaphore_destruct                                         
1001c2e1  ti_sysbios_knl_Swi_delete                                                 
1001c2e5  ti_sysbios_knl_Swi_destruct                                               
1001c2e9  ti_sysbios_knl_Swi_postInit__I                                            
1001c2ed  ti_sysbios_knl_Task_SupportProxy_Module__startupDone__S                   
1001c2f1  ti_sysbios_knl_Task_SupportProxy_getStackAlignment__E                     
1001c2f5  ti_sysbios_knl_Task_SupportProxy_start__E                                 
1001c2f9  ti_sysbios_knl_Task_SupportProxy_swap__E                                  
1001c2fd  ti_sysbios_knl_Task_delete                                                
1001c301  ti_sysbios_knl_Task_destruct                                              
1001c305  ti_sysbios_knl_Task_startup__E                                            
1001c309  xdc_runtime_Startup_startMods__I                                          
1001c401  xdc_runtime_Core_createObject__I                                          
1001c483  xdc_runtime_Error_policySpin__E                                           
1001c485  xdc_runtime_Memory_alloc__E                                               
1001c4f5  xdc_runtime_Core_deleteObject__I                                          
1001c555  xdc_runtime_Startup_exec__E                                               
1001c5a5  xdc_runtime_Assert_raise__I                                               
1001c5ed  xdc_runtime_Core_assignParams__I                                          
1001c635  xdc_runtime_Core_constructObject__I                                       
1001c67d  xdc_runtime_System_atexit__E                                              
1001c6b5  xdc_runtime_System_processAtExit__E                                       
1001c6e9  xdc_runtime_Core_assignLabel__I                                           
1001c719  xdc_runtime_Text_cordText__E                                              
1001c745  xdc_runtime_System_abort__E                                               
1001c765  xdc_runtime_Error_raiseX__E                                               
1001c781  xdc_runtime_Memory_valloc__E                                              
1001c79d  xdc_runtime_Core_destructObject__I                                        
1001c7b5  xdc_runtime_Error_check__E                                                
1001c7cd  xdc_runtime_System_exit__E                                                
1001c7e5  xdc_runtime_Text_ropeText__E                                              
1001c7fd  xdc_runtime_Memory_free__E                                                
1001c80d  xdc_runtime_SysCallback_abort__E                                          
1001c81d  xdc_runtime_SysCallback_exit__E                                           
1001c82d  xdc_runtime_Timestamp_SupportProxy_get32__E                               
1001c82d  xdc_runtime_Timestamp_get32__E                                            
1001c82d  xdc_runtime_Timestamp_get32__E                                            
1001c83d  xdc_runtime_Error_init__E                                                 
1001c849  xdc_runtime_Memory_calloc__E                                              
1001c855  xdc_runtime_Memory_getMaxDefaultTypeAlign__E                              
1001c875  xdc_runtime_Gate_leaveSystem__E                                           
1001c87b  xdc_runtime_System_Module_startup__E                                      
1001c881  xdc_runtime_Gate_enterSystem__E                                           
1001c885  xdc_runtime_Memory_HeapProxy_alloc__E                                     
1001c889  xdc_runtime_Memory_HeapProxy_free__E                                      
1001c88d  xdc_runtime_System_Module_GateProxy_enter__E                              
1001c891  xdc_runtime_System_Module_GateProxy_leave__E                              
1001c895  xdc_runtime_System_abortSpin__E                                           
1001c897  xdc_runtime_System_exitSpin__E                                            
1001c899  ti_sysbios_family_arm_m3_Hwi_dispatch__I                                  
1001c969  ti_sysbios_family_arm_m3_TaskSupport_buildTaskStack                       
1001c9b5  ti_sysbios_family_arm_m3_Hwi_initStacks__E                                
1001c9fd  ti_sysbios_family_arm_m3_Hwi_excHandlerAsm__I                             
1001ca1d  ti_sysbios_family_xxx_Hwi_switchAndRunFunc                                
1001ca3b  ti_sysbios_family_arm_m3_Hwi_pendSV__I                                    
1001ca53  ti_sysbios_family_arm_m3_Hwi_return                                       
1001ca55  ti_sysbios_family_arm_m3_TaskSupport_glue                                 
1001ca65  ti_sysbios_family_arm_m3_TaskSupport_swap__E                              
1001ca65  ti_sysbios_knl_Task_SupportProxy_swap__E__mangled__                       
1001ca6d  ti_sysbios_knl_Task_swapReturn                                            
1001ca97  ti_sysbios_rom_cortexm_cc13xx_CC13xx_getRevision__E                       
20000000  ti_sysbios_family_arm_m3_Hwi_ramVectors                                   
20000100  ti_sysbios_knl_Task_Module__state__V                                      
20000144  ti_sysbios_family_arm_m3_Hwi_Module__state__V                             
20000178  ti_sysbios_knl_Clock_Module__state__V                                     
200001a4  ti_sysbios_BIOS_Module__state__V                                          
200001c8  ti_sysbios_knl_Swi_Module__state__V                                       
200001e4  ti_sysbios_family_arm_cc26xx_Timer_Module__state__V                       
200001ec  ti_sysbios_family_arm_cc26xx_TimestampProvider_Module__state__V           
200001f0  xdc_runtime_Startup_Module__state__V                                      
200001f8  xdc_runtime_System_Module__state__V                                       
20000200  xdc_runtime_Memory_Module__state__V                                       
20000a08  sensorTaskStack                                                           
20000e08  ti_sysbios_heaps_HeapMem_Instance_State_0_buf__A                          
20001208  ti_sysbios_knl_Task_Instance_State_0_stack__A                             
20001408  __CIOBUF_                                                                 
20001528  gptimerCC26XXObjects                                                      
20001748  i2cCC26xxObjects                                                          
20001828  ti_sysbios_family_arm_m3_Hwi_dispatchTable                                
20001c08  xdc_runtime_SysMin_Module_State_0_outbuf__A                               
20001c88  PIN_HandleTable                                                           
20001d04  nodeRadioTask                                                             
20001d54  nodeTask                                                                  
20001da4  sensorTaskStruct                                                          
20001fa8  fastReportTimeoutClock                                                    
200020b0  i2cTransaction                                                            
200020cc  radioAccessSem                                                            
200020e8  radioResultSem                                                            
200021b0  nodeEvent                                                                 
200021d8  radioOperationEvent                                                       
2000221c  i2cParams                                                                 
20002280  parmbuf                                                                   
2000228c  PIN_NumPins                                                               
20002298  hTimer                                                                    
2000229c  i2c                                                                       
200022b4  timerPinHandle                                                            
200022c0  driverlib_release_0_47020                                                 
200022c8  PowerCC26XX_module                                                        
200024c8  pOverrides_hsm                                                            
20002528  pOverrides_lrm                                                            
20002584  pOverrides_ook                                                            
20002638  pOverrides_fsk                                                            
20002690  ti_sysbios_knl_Task_Object__table__V                                      
200026e0  ti_sysbios_family_arm_cc26xx_Timer_Object__table__V                       
20002728  RF_pProp_fsk                                                              
2000272c  RF_pProp_lrm                                                              
20002730  RF_pProp_ook                                                              
20002734  RF_pProp_hsm                                                              
20002738  RF_pProp_2_4G_fsk                                                         
2000273c  RF_pCmdPropRadioDivSetup_fsk                                              
20002740  RF_pCmdPropRadioDivSetup_lrm                                              
20002744  RF_pCmdPropRadioDivSetup_ook                                              
20002748  RF_pCmdRadioSetup_hsm                                                     
2000274c  RF_pCmdPropRadioSetup_2_4G_fsk                                            
20002750  RF_pCmdTxHS                                                               
20002754  RF_pCmdRxHS                                                               
20002758  RF_pCmdFs_preDef                                                          
2000275c  RF_pCmdPropTx_preDef                                                      
20002760  RF_pCmdPropRxAdv_preDef                                                   
20002764  ti_sysbios_gates_GateMutex_Object__table__V                               
2000279c  RF_cmdPropRxAdv_preDef                                                    
200027cc  ti_sysbios_knl_Swi_Module_State_0_readyQ__A                               
200027fc  ti_sysbios_knl_Swi_Object__table__V                                       
2000282c  RF_cmdPropRadioDivSetup                                                   
20002854  RF_cmdPropRadioDivSetup_fsk                                               
2000287c  RF_cmdPropRadioDivSetup_lrm                                               
200028a4  RF_cmdPropRadioDivSetup_ook                                               
200028cc  RF_cmdRxHS                                                                
200028f0  intervalBuf                                                               
20002910  ti_sysbios_knl_Clock_Object__table__V                                     
20002930  ti_sysbios_knl_Task_Module_State_0_readyQ__A                              
20002950  timerBuf                                                                  
2000298c  RF_cmdFs                                                                  
200029a4  RF_cmdFs_preDef                                                           
200029bc  RF_cmdPropTx                                                              
200029d4  RF_cmdPropTx_preDef                                                       
200029ec  RF_cmdRadioSetup_hsm                                                      
20002a1c  shapeovr                                                                  
20002a34  ti_sysbios_family_arm_m3_Hwi_Object__table__V                             
20002a4c  ti_sysbios_heaps_HeapMem_Object__table__V                                 
20002a64  RF_cmdTxHS                                                                
20002a78  RF_prop                                                                   
20002a88  RF_prop_fsk                                                               
20002a98  RF_prop_hsm                                                               
20002aa8  RF_prop_lrm                                                               
20002ab8  RF_prop_ook                                                               
20002ae4  xdc_runtime_SysMin_Module__state__V                                       
20002af0  _lock                                                                     
20002af4  _unlock                                                                   
20002af8  timerBufIndex                                                             
20002af9  intervalBufIndex                                                          
20002b00  buttonPinTable                                                            
20002b08  gptPinTable                                                               
20002b10  outputPinTable                                                            
20002b18  pinTable                                                                  
20002b20  ti_sysbios_family_arm_m3_Hwi_Module__root__V                              
20002b28  ti_sysbios_gates_GateHwi_Module__root__V                                  
20002b30  ti_sysbios_gates_GateMutex_Module__root__V                                
20002b38  ti_sysbios_hal_Hwi_Module__root__V                                        
20002b40  ti_sysbios_heaps_HeapMem_Module__root__V                                  
20002b48  ti_sysbios_knl_Clock_Module__root__V                                      
20002b50  ti_sysbios_knl_Event_Module__root__V                                      
20002b58  ti_sysbios_knl_Mailbox_Module__root__V                                    
20002b60  ti_sysbios_knl_Queue_Module__root__V                                      
20002b68  ti_sysbios_knl_Semaphore_Module__root__V                                  
20002b70  ti_sysbios_knl_Swi_Module__root__V                                        
20002b78  ti_sysbios_knl_Task_Module__root__V                                       
20002b80  xdc_runtime_Registry_Module__state__V                                     
20002b88  xdc_runtime_System_Module_State_0_atexitHandlers__A                       
20002b90  main_func_sp                                                              
20002b94  ti_sysbios_family_arm_m3_Hwi_Module_State_0_excContext__A                 
20002b98  ti_sysbios_family_arm_m3_Hwi_Module_State_0_excStack__A                   
20002b9c  ti_sysbios_knl_Task_Module_State_0_idleTask__A                            
20002ba0  ti_sysbios_family_arm_m3_Hwi_Module_State_0_excActive__A                  
20004d00  __stack                                                                   
20005000  __STACK_END                                                               
e000e000  ti_sysbios_family_arm_m3_Hwi_nvic                                         
ffffffff  __TI_pprof_out_hndl                                                       
ffffffff  __TI_prof_data_size                                                       
ffffffff  __TI_prof_data_start                                                      
ffffffff  __binit__                                                                 
ffffffff  __c_args__                                                                
ffffffff  binit                                                                     
UNDEFED   SHT$$INIT_ARRAY$$Base                                                     
UNDEFED   SHT$$INIT_ARRAY$$Limit                                                    

[892 symbols]
